(lp1
(S'to'
p2
S'the'
p3
tp4
a(S'do'
p5
S"n't"
p6
tp7
a(S'to'
p8
S'be'
p9
tp10
a(S'it'
p11
S"'s"
p12
tp13
a(S'of'
p14
S'the'
p15
tp16
a(S'are'
p17
S'you'
p18
tp19
a(S'in'
p20
S'the'
p21
tp22
a(S'that'
p23
S'you'
tp24
a(S'you'
S'please'
p25
tp26
a(S'do'
p27
S'you'
p28
tp29
a(S'Can'
S'you'
p30
tp31
a(S'on'
p32
S'the'
p33
tp34
a.