(lp1
(S'it'
p2
S'looks'
p3
tp4
a(S"n't"
S'think'
p5
tp6
a(S'do'
p7
S'not'
p8
tp9
a(S'the'
S'point'
tp10
a(S'thank'
S'you'
p11
tp12
a(S'know'
p13
S'if'
p14
tp15
a(S'that'
p16
S"'s"
p17
tp18
a(S'i'
S'had'
p19
tp20
a(S'do'
S'?'
tp21
a(S'was'
S'it'
tp22
a(S'should'
p23
S'i'
tp24
a(S'can'
S'not'
p25
tp26
a(S'a'
S'bit'
p27
tp28
a(S'it'
p29
S'to'
tp30
a(S'for'
p31
S'an'
p32
tp33
a(S'why'
p34
S'you'
p35
tp36
a(S'sure'
p37
S'what'
tp38
a(S'some'
p39
S'of'
p40
tp41
a(S'what'
S"'s"
tp42
a(S'are'
p43
S'the'
p44
tp45
a(S'a'
S'link'
p46
tp47
a(S'to'
p48
S'you'
p49
tp50
a(S'the'
p51
S'answer'
p52
tp53
a(S'use'
p54
S'a'
tp55
a(S'just'
p56
S'a'
tp57
a(S'is'
p58
S'your'
p59
tp60
a(g46
S'to'
p61
tp62
a(S'have'
p63
S'been'
p64
tp65
a(S'something'
p66
S'like'
p67
tp68
a(S'it'
g56
tp69
a(S'i'
S'will'
p70
tp71
a(S'and'
p72
S'not'
p73
tp74
a(S'44'
S'not'
p75
tp76
a(S'i'
S"'d"
p77
tp78
a(S'that'
p79
S'is'
p80
tp81
a(S'not'
S'just'
p82
tp83
a(S'what'
S'?'
tp84
a(S'with'
p85
S'the'
p86
tp87
a(S'you'
p88
S'know'
p89
tp90
a(S'did'
p91
S'you'
p92
tp93
a(S'to'
p94
S'be'
p95
tp96
a(S'that'
p97
S'I'
tp98
a(S'the'
S'article'
p99
tp100
a(S'34'
S'?'
tp101
a(S'if'
p102
S'there'
p103
tp104
a(S"'s"
S'wrong'
tp105
a(S'think'
p106
S'you'
tp107
a(S'of'
S'that'
p108
tp109
a(S'that'
p110
S'?'
tp111
a(S'a'
S'way'
tp112
a(S'I'
S"'ve"
p113
tp114
a(S'?'
S'?'
tp115
a(S'what'
p116
S'the'
tp117
a(S"''"
p118
S'?'
tp119
a(S'the'
S'top'
tp120
a(S'an'
S'example'
p121
tp122
a(S'it'
S'that'
p123
tp124
a(S'It'
S"'s"
tp125
a(S'44'
S'thanks'
p126
tp127
a(S'i'
g106
tp128
a(S'have'
p129
S'the'
p130
tp131
a(S"n't"
p132
S'the'
p133
tp134
a(S'it'
p135
S'be'
p136
tp137
a(S'able'
p138
S'to'
p139
tp140
a(S'version'
p141
S'of'
p142
tp143
a(S'What'
S'kind'
tp144
a(S'it'
p145
S'does'
tp146
a(S'on'
p147
S'that'
p148
tp149
a(S'on'
p150
S'the'
p151
tp152
a(S'a'
S'question'
p153
tp154
a(S'of'
p155
S'the'
p156
tp157
a(g59
S'code'
p158
tp159
a(S'please'
p160
S'?'
tp161
a(S'this'
p162
S'question'
p163
tp164
a(S"'s"
S'not'
p165
tp166
a(S'you'
S'using'
p167
tp168
a(S'have'
S'no'
p169
tp170
a(S'44'
S'could'
tp171
a(S'this'
p172
S'one'
p173
tp174
a(S'the'
S'talk'
tp175
a(S'What'
g43
tp176
a(g153
S'?'
tp177
a(S'supposed'
p178
S'to'
p179
tp180
a(S'code'
S'?'
tp181
a(S'such'
p182
S'a'
tp183
a(S'this'
S'article'
p184
tp185
a(g156
S'problem'
p186
tp187
a(S'is'
p188
S"n't"
p189
tp190
a(S'for'
p191
S'a'
tp192
a(S'has'
p193
S'been'
p194
tp195
a(S'to'
p196
S'use'
p197
tp198
a(S"'m"
S'not'
p199
tp200
a(S'when'
p201
S'i'
tp202
a(S'how'
p203
S'to'
p204
tp205
a(S'i'
S'noticed'
p206
tp207
a(S'seem'
p208
S'to'
tp209
a(S'you'
S'just'
p210
tp211
a(S'from'
p212
S'a'
tp213
a(S'your'
p214
S'own'
p215
tp216
a(S'let'
p217
S'me'
p218
tp219
a(S'be'
S'the'
p220
tp221
a(S"n't"
S'want'
tp222
a(S'the'
S'question'
p223
tp224
a(S'you'
p225
S'please'
p226
tp227
a(S"n't"
S'be'
p228
tp229
a(S'you'
S'help'
p230
tp231
a(S'be'
p232
g138
tp233
a(S"'s"
S'the'
p234
tp235
a(S'work'
p236
g150
tp237
a(S'to'
S'ask'
p238
tp239
a(S'i'
S"'ve"
p240
tp241
a(S'did'
p242
S"n't"
p243
tp244
a(S'Can'
S'you'
p245
tp246
a(S'the'
S'user'
p247
tp248
a(S'out'
p249
S'of'
p250
tp251
a(S'for'
p252
S'this'
p253
tp254
a(S'i'
S'do'
p255
tp256
a(S'and'
S'i'
tp257
a(S'to'
p258
S'my'
p259
tp260
a(S'about'
p261
S'the'
p262
tp263
a(S'here'
p264
S'?'
tp265
a(S'are'
p266
S'not'
tp267
a(S'talking'
p268
S'about'
tp269
a(S"n't"
S'really'
p270
tp271
a(S'to'
p272
S'?'
tp273
a(S'kind'
p274
S'of'
p275
tp276
a(S'the'
S'code'
p277
tp278
a(S'do'
S'that'
tp279
a(S'a'
S'little'
p280
tp281
a(S'like'
p282
S'to'
p283
tp284
a(S'you'
S'have'
p285
tp286
a(S'possible'
p287
S'to'
p288
tp289
a(S'you'
S'make'
p290
tp291
a(S'44'
S'the'
p292
tp293
a(S'If'
S'you'
tp294
a(S'into'
p295
S'the'
p296
tp297
a(S'have'
p298
S'you'
p299
tp300
a(S'is'
S'that'
tp301
a(S'or'
p302
S'a'
tp303
a(g245
S'post'
p304
tp305
a(S'that'
p306
S'this'
tp307
a(S'What'
S'exactly'
p308
tp309
a(S'any'
S'chance'
p310
tp311
a(S'give'
S'a'
tp312
a(S'would'
S'you'
p313
tp314
a(S'wondering'
p315
S'if'
p316
tp317
a(S'you'
S'like'
tp318
a(S'Is'
S'the'
tp319
a(S'What'
S"'s"
p320
tp321
a(g139
S'help'
p322
tp323
a(S'need'
S'a'
tp324
a(S'to'
p325
S'the'
p326
tp327
a(S'thanks'
S'for'
tp328
a(S'like'
p329
g172
tp330
a(S'looking'
p331
S'for'
p332
tp333
a(S'than'
S'the'
p334
tp335
a(S'you'
S'be'
p336
tp337
a(S'not'
S'the'
p338
tp339
a(S'on'
p340
S'my'
p341
tp342
a(S'see'
p343
S'the'
p344
tp345
a(S'That'
S"'s"
p346
tp347
a(S'with'
p348
S'a'
tp349
a(S'this'
S'a'
tp350
a(S'where'
p351
S'you'
tp352
a(S'me'
S'?'
tp353
a(S'do'
S'with'
p354
tp355
a(S'This'
S'is'
p356
tp357
a(S'now'
p358
S'?'
tp359
a(S'using'
S'?'
tp360
a(S'with'
p361
S'you'
p362
tp363
a(S'with'
p364
S'?'
tp365
a(S'could'
S'you'
tp366
a(S'with'
S'it'
tp367
a(S'an'
p368
S'answer'
tp369
a(S'list'
p370
S'of'
p371
tp372
a(S'to'
p373
S'this'
p374
tp375
a(S'Is'
S'it'
p376
tp377
a(S"'m"
S'sorry'
p378
tp379
a(S'Could'
g225
tp380
a(S'I'
S'think'
p381
tp382
a(S'the'
S'image'
p383
tp384
a(S'not'
S'be'
p385
tp386
a(S'what'
S'are'
p387
tp388
a(S'want'
p389
g196
tp390
a(S'why'
p391
S'did'
tp392
a(S'are'
S"n't"
p393
tp394
a(S'file'
p395
S'?'
tp396
a(S'like'
S'a'
tp397
a(S'Why'
S'are'
p398
tp399
a(S'Would'
S'you'
p400
tp401
a(S'about'
S'?'
tp402
a(S"n't"
S'see'
p403
tp404
a(S'you'
S'mean'
p405
tp406
a(S'one'
p407
S'?'
tp408
a(S'as'
p409
S'the'
tp410
a(S'do'
S'it'
p411
tp412
a(S'of'
p413
S'a'
tp414
a(S'on'
p415
S'your'
p416
tp417
a(S'the'
p418
S'title'
p419
tp420
a(S'all'
p421
S'of'
tp422
a(S'more'
p423
S'than'
p424
tp425
a(S'it'
S'would'
tp426
a(S'How'
S'do'
tp427
a(S'on'
S'a'
tp428
a(S'which'
p429
S'is'
p430
tp431
a(S'more'
p432
S'information'
p433
tp434
a(S'yet'
p435
S'?'
tp436
a(S'more'
p437
S'specific'
p438
tp439
a(S'not'
p440
S'a'
tp441
a(S'i'
S'just'
p442
tp443
a(S'you'
S'explain'
p444
tp445
a(S'please'
S'explain'
p446
tp447
a(S'could'
p448
S'be'
p449
tp450
a(S'provide'
S'a'
tp451
a(S'on'
p452
S'?'
tp453
a(S'44'
S'you'
p454
tp455
a(S'44'
S'but'
p456
tp457
a(S'a'
S'look'
p458
tp459
a(S'you'
S'use'
tp460
a(S'work'
p461
S'?'
tp462
a(S'it'
S'was'
p463
tp464
a(S'What'
S'do'
p465
tp466
a(S'can'
p467
S'be'
p468
tp469
a(S'all'
p470
S'the'
p471
tp472
a(S'type'
p473
S'of'
p474
tp475
a(S'is'
p476
S'not'
p477
tp478
a(S'wo'
p479
S"n't"
p480
tp481
a(S'you'
S'are'
p482
tp483
a(S'was'
p484
S"n't"
p485
tp486
a(S'then'
p487
S'?'
tp488
a(S'there'
p489
g188
tp490
a(S'it'
S'a'
tp491
a(S'why'
p492
S'not'
p493
tp494
a(S'you'
S'need'
p495
tp496
a(S'get'
S'the'
p497
tp498
a(S'something'
p499
S'?'
tp500
a(S'I'
S'do'
tp501
a(S'you'
S'for'
p502
tp503
a(S'for'
p504
S'that'
p505
tp506
a(S'a'
S'good'
p507
tp508
a(S'44'
S'it'
tp509
a(S'44'
S'i'
tp510
a(S'as'
p511
S'you'
tp512
a(S'and'
S'how'
tp513
a(S'like'
p514
g79
tp515
a(S'the'
p516
S'name'
p517
tp518
a(g465
S'you'
p519
tp520
a(S'the'
p521
S'page'
p522
tp523
a(S'but'
S'i'
tp524
a(S'and'
p525
S'it'
p526
tp527
a(S'know'
S'that'
tp528
a(g332
S'?'
tp529
a(S'you'
p530
S'?'
tp531
a(S'like'
S'you'
tp532
a(g405
S'by'
p533
tp534
a(S'tell'
p535
S'me'
p536
tp537
a(S'use'
S'the'
p538
tp539
a(S'why'
p540
S'would'
tp541
a(S'using'
p542
S'the'
p543
tp544
a(S'time'
p545
S'to'
p546
tp547
a(S'but'
p548
S'it'
tp549
a(S'change'
p550
S'the'
tp551
a(S'try'
p552
S'to'
p553
tp554
a(S'i'
S'did'
p555
tp556
a(S'you'
S'try'
p557
tp558
a(S'44'
g429
tp559
a(S'a'
S'few'
p560
tp561
a(S'at'
p562
S'all'
p563
tp564
a(S'or'
S'are'
tp565
a(S'What'
S'is'
tp566
a(g533
S'``'
p567
tp568
a(S'i'
S'was'
p569
tp570
a(S'ok'
p571
S'?'
tp572
a(S'is'
p573
S'it'
p574
tp575
a(S'that'
p576
S'i'
tp577
a(S'44'
S'can'
tp578
a(S'homework'
p579
S'?'
tp580
a(S'need'
p581
S'to'
tp582
a(S'way'
p583
S'to'
p584
tp585
a(S'Is'
S'this'
p586
tp587
a(S'it'
p588
S'on'
p589
tp590
a(S'and'
S'the'
tp591
a(S'the'
S'one'
p592
tp593
a(S'is'
p594
S'the'
p595
tp596
a(S'as'
p597
S'it'
tp598
a(S'that'
p599
S'the'
p600
tp601
a(S'one'
S'of'
tp602
a(S'but'
S'you'
p603
tp604
a(S'do'
S'this'
p605
tp606
a(S'is'
S'an'
p607
tp608
a(S'what'
p609
S'exactly'
p610
tp611
a(S'that'
p612
S'it'
tp613
a(g456
S'the'
p614
tp615
a(S'them'
p616
S'?'
tp617
a(S'do'
S'the'
p618
tp619
a(S'the'
p620
S'way'
p621
tp622
a(S'should'
p623
g132
tp624
a(S'up'
p625
S'?'
tp626
a(S'why'
p627
S'?'
tp628
a(S'how'
p629
S'many'
p630
tp631
a(S'do'
p632
S"n't"
p633
tp634
a(S'to'
S'make'
p635
tp636
a(S'a'
S'problem'
tp637
a(S'44'
S'why'
tp638
a(S'and'
p639
S'then'
p640
tp641
a(S'related'
p642
S'to'
p643
tp644
a(S'i'
S'can'
p645
tp646
a(S'Is'
S"n't"
p647
tp648
a(S'this'
p649
S'?'
tp650
a(g584
S'add'
p651
tp652
a(S'if'
p653
S'it'
tp654
a(S'the'
S'template'
p655
tp656
a(g243
S'have'
p657
tp658
a(S'for'
p659
S'you'
p660
tp661
a(S'you'
p662
S'trying'
p663
tp664
a(S'know'
S'what'
tp665
a(S"'s"
p666
S'a'
tp667
a(S'in'
p668
S'a'
tp669
a(S'to'
S'know'
p670
tp671
a(S'44'
S'as'
tp672
a(S'is'
S'this'
p673
tp674
a(g130
S'time'
tp675
a(g635
S'it'
p676
tp677
a(S'on'
p678
S'what'
p679
tp680
a(S'of'
S'those'
p681
tp682
a(S'as'
p683
S'to'
p684
tp685
a(S'of'
p686
S'what'
tp687
a(S'will'
p688
S'be'
tp689
a(S'not'
p690
S'?'
tp691
a(S'Why'
S'would'
p692
tp693
a(S'in'
p694
S'this'
p695
tp696
a(S"n't"
S'understand'
p697
tp698
a(S"n't"
p699
S'it'
p700
tp701
a(S'the'
p702
S'first'
p703
tp704
a(S'or'
p705
g690
tp706
a(S'and'
S'you'
tp707
a(S'we'
p708
S'have'
tp709
a(S'any'
S'other'
p710
tp711
a(S'page'
p712
S'?'
tp713
a(S'so'
p714
S'that'
tp715
a(S'it'
p716
S'in'
p717
tp718
a(S'why'
p719
S'are'
tp720
a(S'would'
p721
g282
tp722
a(S'you'
S'see'
tp723
a(g283
S'do'
p724
tp725
a(S'44'
p726
g72
tp727
a(S'it'
p728
S'for'
tp729
a(S'is'
p730
S'no'
p731
tp732
a(S'understand'
S'the'
tp733
a(S'be'
p734
g437
tp735
a(S'a'
S'lot'
p736
tp737
a(S'you'
S'give'
tp738
a(S"n't"
S'work'
tp739
a(S'they'
p740
S'are'
p741
tp742
a(g5
g516
tp743
a(S'what'
p744
g573
tp745
a(S'in'
p746
S'the'
p747
tp748
a(S'know'
p749
g51
tp750
a(S'the'
S'``'
p751
tp752
a(S'you'
S'not'
p753
tp754
a(S'that'
p755
S'you'
p756
tp757
a(S'as'
S'i'
tp758
a(S'Did'
S'you'
tp759
a(S'am'
S'not'
p760
tp761
a(S'we'
p762
S'can'
p763
tp764
a(S'i'
S'am'
p765
tp766
a(S'what'
S'do'
tp767
a(S'think'
p768
S'i'
tp769
a(S'What'
S'have'
tp770
a(S'post'
p771
S'the'
p772
tp773
a(S'I'
S'am'
p774
tp775
a(S'you'
p776
S"'re"
p777
tp778
a(S'willing'
p779
S'to'
p780
tp781
a(g454
S'can'
p782
tp783
a(S'have'
S'any'
p784
tp785
a(S'it'
p786
S'seems'
p787
tp788
a(S'a'
S'new'
p789
tp790
a(S'i'
S'see'
p791
tp792
a(S'of'
p793
S'my'
p794
tp795
a(S'talk'
p796
g712
tp797
a(S'in'
p798
S'your'
p799
tp800
a(S'44'
S'is'
tp801
a(S"n't"
S'know'
tp802
a(S'how'
p803
S'you'
p804
tp805
a(S'problem'
S'?'
tp806
a(S'part'
p807
S'of'
p808
tp809
a(S'at'
p810
S'least'
p811
tp812
a(S'why'
S'is'
tp813
a(S'to'
p814
S'see'
p815
tp816
a(S'you'
S'think'
p817
tp818
a(S'you'
p819
S'do'
tp820
a(S'it'
p821
S'?'
tp822
a(S'Have'
S'you'
p823
tp824
a(S'I'
S'ca'
tp825
a(S'you'
S'were'
p826
tp827
a(S'so'
p828
S'i'
tp829
a(S'seems'
p830
S'to'
p831
tp832
a(S'does'
p833
S'not'
p834
tp835
a(S'correct'
p836
S'?'
tp837
a(S'to'
p838
S'me'
p839
tp840
a(S'there'
p841
S'a'
tp842
a(S'would'
p843
S'be'
p844
tp845
a(g316
g88
tp846
a(S'will'
p847
S'you'
p848
tp849
a(S'i'
S'have'
p850
tp851
a(S'i'
S'know'
p852
tp853
a(S'can'
S'you'
p854
tp855
a(S'do'
p856
S'i'
tp857
a(S'can'
S'i'
tp858
a(S'or'
p859
S'do'
tp860
a(g657
S'a'
tp861
a(S'to'
S'work'
p862
tp863
a(S'going'
p864
S'to'
tp865
a(S'you'
S'say'
p866
tp867
a(S'that'
p868
S'was'
p869
tp870
a(S'44'
S'would'
p871
tp872
a(S'you'
S'add'
p873
tp874
a(g756
g721
tp875
a(S'Is'
g841
tp876
a(S'you'
S"'d"
tp877
a(S'your'
p878
S'question'
tp879
a(S'a'
S'better'
p880
tp881
a(S'Why'
S'not'
p882
tp883
a(S'ca'
p884
S"n't"
tp885
a(S'think'
S'that'
p886
tp887
a(S'was'
S'a'
tp888
a(S'44'
S'if'
tp889
a(S'number'
S'of'
p890
tp891
a(S'44'
S'that'
p892
tp893
a(S'interested'
p894
S'in'
p895
tp896
a(g747
S'same'
p897
tp898
a(S'to'
p899
S'get'
p900
tp901
a(S'as'
p902
S'an'
p903
tp904
a(S'on'
S'this'
tp905
a(S'answer'
S'?'
tp906
a(S'you'
S'clarify'
p907
tp908
a(S'if'
S'i'
tp909
a(S'I'
S"'m"
p910
tp911
a(S'44'
g160
tp912
a(S'an'
p913
S'article'
tp914
a(S'you'
S'tried'
p915
tp916
a(S'this'
p917
S'is'
p918
tp919
a(S'i'
S'would'
p920
tp921
a(S'there'
S'any'
p922
tp923
a(S'you'
p924
S'did'
p925
tp926
a(S'you'
S'looking'
tp927
a(S'for'
p928
g702
tp929
a(S'you'
p930
S'really'
p931
tp932
a(S'if'
p933
S'the'
p934
tp935
a(S'from'
p936
S'the'
p937
tp938
a(S'take'
p939
S'a'
tp940
a(g99
S'on'
p941
tp942
a(S'over'
p943
S'the'
tp944
a(S'with'
p945
S'this'
tp946
a(g285
S'to'
p947
tp948
a(S'so'
S'far'
p949
tp950
a(S'you'
S'tell'
tp951
a(S'have'
p952
S"n't"
p953
tp954
a(S'be'
S'a'
tp955
a(S'does'
p956
S"n't"
tp957
a(S'agree'
p958
S'with'
tp959
a(S'you'
S'mind'
p960
tp961
a(S'but'
S'I'
tp962
a(S'up'
S'with'
p963
tp964
a(S'I'
S'can'
p965
tp966
a(S'and'
p967
S'what'
tp968
a(S'do'
S'I'
tp969
a(g663
S'to'
p970
tp971
a(S'that'
p972
S'they'
p973
tp974
a(S'to'
p975
S'a'
tp976
a(S'should'
p977
S'be'
p978
tp979
a(S'that'
S'a'
tp980
a(S'you'
S'ca'
tp981
a(S'44'
S'do'
tp982
a(S'you'
p983
S'could'
p984
tp985
a(S'you'
S'provide'
p986
tp987
a(S'in'
p988
S'my'
p989
tp990
a(S'instead'
p991
S'of'
p992
tp993
a(S'at'
p994
S'the'
p995
tp996
a(S'there'
p997
g666
tp998
a(S'problem'
p999
S'with'
p1000
tp1001
a(S'it'
p1002
S'should'
p1003
tp1004
a(S'you'
S'to'
p1005
tp1006
a(g817
S'it'
p1007
tp1008
a(S'have'
S'an'
p1009
tp1010
a(S'the'
S'second'
p1011
tp1012
a(S'to'
S'say'
p1013
tp1014
a(S'what'
p1015
S'does'
p1016
tp1017
a(S'as'
p1018
S'well'
p1019
tp1020
a(S'i'
S"'m"
p1021
tp1022
a(S'it'
p1023
S"'s"
p1024
tp1025
a(S'to'
S'have'
p1026
tp1027
a(S'of'
p1028
S'it'
tp1029
a(g633
S'you'
p1030
tp1031
a(S'is'
p1032
S'there'
p1033
tp1034
a(S'too'
p1035
S'?'
tp1036
a(S'me'
p1037
S'a'
tp1038
a(g40
S'your'
p1039
tp1040
a(g75
S'sure'
p1041
tp1042
a(S'the'
p1043
S'error'
p1044
tp1045
a(g670
g203
tp1046
a(S'the'
p1047
S'edit'
p1048
tp1049
a(S'think'
S'?'
tp1050
a(g1030
g389
tp1051
a(S'i'
S"'ll"
p1052
tp1053
a(S'question'
p1054
S'is'
p1055
tp1056
a(S'to'
S'find'
tp1057
a(S'with'
p1058
S'your'
p1059
tp1060
a(S'Does'
S'it'
p1061
tp1062
a(g77
S'like'
tp1063
a(S'to'
p1064
S'your'
p1065
tp1066
a(S'the'
S'new'
p1067
tp1068
a(S'How'
S'are'
tp1069
a(S'44'
S'what'
p1070
tp1071
a(g398
g662
tp1072
a(S'there'
p1073
S'are'
p1074
tp1075
a(g446
S'what'
tp1076
a(S'44'
S'so'
p1077
tp1078
a(S'Are'
S'you'
p1079
tp1080
a(g1019
S'?'
tp1081
a(S'as'
p1082
S'a'
tp1083
a(S'Is'
S'that'
p1084
tp1085
a(S'right'
p1086
S'?'
tp1087
a(S'when'
p1088
S'you'
p1089
tp1090
a(S'referring'
p1091
g272
tp1092
a(S"'ve"
p1093
S'been'
p1094
tp1095
a(S'what'
S'I'
tp1096
a(g871
g699
tp1097
a(S'noticed'
S'that'
tp1098
a(S'you'
p1099
S'should'
p1100
tp1101
a(S'the'
S'list'
p1102
tp1103
a(S'saying'
p1104
S'that'
p1105
tp1106
a(g736
S'of'
p1107
tp1108
a(S'I'
S'have'
p1109
tp1110
a(S'you'
p1111
S"'ve"
p1112
tp1113
a(S'does'
p1114
S'the'
p1115
tp1116
a(S'is'
p1117
S'a'
tp1118
a(S'am'
p1119
S'i'
tp1120
a(S'might'
p1121
S'be'
tp1122
a(S'how'
S'can'
tp1123
a(S'for'
S'your'
p1124
tp1125
a(g3
S'like'
p1126
tp1127
a(S'by'
p1128
S'the'
tp1129
a(S'does'
p1130
S'it'
tp1131
a(S'article'
S'?'
tp1132
a(S'of'
p1133
S'this'
p1134
tp1135
a(S'are'
S'we'
tp1136
a(S'wrong'
p1137
g1058
tp1138
a(S'it'
S'possible'
tp1139
a(S'or'
p1140
S'is'
tp1141
a(S'you'
S'get'
p1142
tp1143
a(S'me'
p1144
S'to'
p1145
tp1146
a(S'what'
p1147
g776
tp1148
a(S'to'
p1149
g939
tp1150
a(S'rather'
S'than'
p1151
tp1152
a(S'on'
p1153
S'wikipedia'
p1154
tp1155
a(S'the'
p1156
S'last'
p1157
tp1158
a(S'bit'
S'more'
p1159
tp1160
a(S'why'
S'do'
tp1161
a(S'how'
S'do'
tp1162
a(g336
S'interested'
tp1163
a(S'or'
p1164
g66
tp1165
a(g791
S'you'
p1166
tp1167
a(S'look'
p1168
S'at'
tp1169
a(S'I'
S"'d"
p1170
tp1171
a(S'Why'
g632
tp1172
a(g526
S'is'
p1173
tp1174
a(S'for'
p1175
S'me'
tp1176
a(S'I'
S'would'
p1177
tp1178
a(S'Do'
S'you'
tp1179
a(S'or'
p1180
S'the'
p1181
tp1182
a(S'help'
S'?'
tp1183
a(S'44'
g1140
tp1184
a(S'add'
S'a'
tp1185
a(S'the'
S'other'
p1186
tp1187
a.