(lp1
(S'thoughts'
p2
S'?'
tp3
a(S'more'
S'about'
p4
tp5
a(S"n't"
S'think'
p6
tp7
a(S'do'
S'not'
p8
tp9
a(S'they'
p10
S"'re"
p11
tp12
a(S'from'
p13
S'?'
tp14
a(S"'ve"
S'got'
p15
tp16
a(S'thank'
p17
S'you'
p18
tp19
a(S'help'
p20
S'me'
p21
tp22
a(S'i'
S'am'
p23
tp24
a(S'or'
p25
S'what'
tp26
a(S'know'
S'if'
tp27
a(S'this'
S'for'
tp28
a(S'how'
p29
S'about'
tp30
a(S'question'
p31
S'about'
tp32
a(S'was'
p33
S'it'
tp34
a(S'can'
p35
S'not'
p36
tp37
a(S'you'
p38
S'show'
p39
tp40
a(S'a'
S'bit'
p41
tp42
a(S'it'
p43
S'to'
tp44
a(S'You'
S'mean'
p45
tp46
a(S'i'
S'get'
p47
tp48
a(S"n't"
S'this'
tp49
a(S'the'
S'only'
p50
tp51
a(S'does'
p52
S'it'
p53
tp54
a(S'of'
S'an'
p55
tp56
a(S'some'
p57
S'of'
p58
tp59
a(S'that'
S'has'
p60
tp61
a(S'44'
S'because'
tp62
a(S'understand'
p63
S'what'
tp64
a(S'to'
p65
g20
tp66
a(S'as'
p67
S'I'
tp68
a(S'...'
p69
S'but'
p70
tp71
a(S'a'
S'link'
p72
tp73
a(S'use'
S'a'
tp74
a(S'...'
p75
S'what'
tp76
a(S'link'
S'to'
tp77
a(S'have'
p78
S'been'
p79
tp80
a(S'be'
S'used'
p81
tp82
a(S'i'
S'will'
p83
tp84
a(S'i'
S"'d"
tp85
a(S'that'
S'is'
tp86
a(S'like'
p87
S'?'
tp88
a(S'such'
p89
S'as'
p90
tp91
a(S'you'
S'know'
p92
tp93
a(S'to'
p94
S'be'
p95
tp96
a(S'that'
p97
S'I'
tp98
a(S'44'
S'how'
tp99
a(S'the'
S'article'
p100
tp101
a(S'had'
p102
S'a'
tp103
a(S'if'
p104
S'there'
p105
tp106
a(S"'s"
p107
S'wrong'
p108
tp109
a(S'think'
S'you'
tp110
a(S'for'
p111
S'it'
p112
tp113
a(S'exactly'
S'is'
tp114
a(S'was'
S'wondering'
tp115
a(S'of'
S'that'
p116
tp117
a(S'a'
S'way'
tp118
a(S'It'
S'seems'
p119
tp120
a(S'if'
p121
S'not'
tp122
a(S'me'
p123
S'that'
p124
tp125
a(S'time'
p126
S'?'
tp127
a(S'so'
p128
S'I'
tp129
a(S'is'
S'to'
tp130
a(S'?'
S'?'
tp131
a(S'what'
p132
S'the'
tp133
a(S"''"
p134
S'?'
tp135
a(S"'m"
S'a'
tp136
a(S'see'
p137
S'what'
tp138
a(S'it'
S'that'
tp139
a(S'It'
S"'s"
tp140
a(S'44'
S'thanks'
tp141
a(S'and'
S'if'
tp142
a(S'you'
p143
S'do'
p144
tp145
a(S'have'
S'the'
p146
tp147
a(S'this'
p148
S'?'
tp149
a(S"n't"
p150
S'the'
p151
tp152
a(S'it'
S'be'
p153
tp154
a(S'version'
p155
S'of'
tp156
a(S'know'
p157
S'about'
tp158
a(S'What'
S'kind'
tp159
a(S'can'
p160
S'I'
tp161
a(S'And'
S'what'
p162
tp163
a(S'there'
S'was'
p164
tp165
a(S'I'
S'was'
tp166
a(S'for'
S'some'
p167
tp168
a(S'more'
S'?'
tp169
a(S'that'
S'what'
p170
tp171
a(S'in'
p172
S'which'
p173
tp174
a(S'set'
p175
S'up'
p176
tp177
a(S'say'
p178
S'``'
p179
tp180
a(S'my'
S'talk'
tp181
a(S'like'
S'it'
tp182
a(S'image'
p183
S'?'
tp184
a(S'a'
S'question'
tp185
a(S"''"
p186
S'to'
p187
tp188
a(S'you'
S'talking'
tp189
a(S'place'
p190
S'?'
tp191
a(S'please'
p192
S'?'
tp193
a(S'this'
S'question'
p194
tp195
a(S'having'
p196
S'trouble'
p197
tp198
a(S'some'
p199
S'kind'
tp200
a(S'you'
g102
tp201
a(S'output'
p202
S'?'
tp203
a(S'have'
S'no'
p204
tp205
a(S'a'
S'solution'
p206
tp207
a(S'some'
p208
S'more'
p209
tp210
a(S'the'
S'talk'
p211
tp212
a(S'What'
S'are'
tp213
a(S'because'
p214
S'it'
p215
tp216
a(S'44'
S'just'
tp217
a(S'such'
p218
S'a'
tp219
a(S'the'
S'problem'
p220
tp221
a(S'has'
p222
S'been'
p223
tp224
a(S'sort'
p225
S'of'
p226
tp227
a(S'to'
S'use'
p228
tp229
a(S'when'
S'i'
tp230
a(S'you'
S'made'
p231
tp232
a(S'how'
p233
S'to'
tp234
a(S'you'
p235
S'just'
p236
tp237
a(S'we'
p238
S'should'
p239
tp240
a(S'your'
p241
S'own'
p242
tp243
a(S"'re"
S'asking'
p244
tp245
a(S'and'
p246
S'in'
p247
tp248
a(S'with'
S'your'
p249
tp250
a(S'see'
S'you'
tp251
a(S'think'
p252
S'of'
p253
tp254
a(S'it'
p255
S'will'
p256
tp257
a(S'on'
p258
S'your'
p259
tp260
a(S'be'
S'the'
tp261
a(S'the'
p262
S'question'
p263
tp264
a(S'Did'
S'you'
p265
tp266
a(S"n't"
S'be'
p267
tp268
a(S'Is'
S'there'
tp269
a(S'since'
p270
S'you'
p271
tp272
a(S'you'
S'help'
tp273
a(S'be'
p274
S'able'
tp275
a(S"'s"
S'the'
tp276
a(S'work'
p277
S'on'
p278
tp279
a(S'did'
p280
S"n't"
p281
tp282
a(S'or'
p283
S'did'
tp284
a(S'there'
p285
S'a'
tp286
a(S'them'
p287
S'to'
tp288
a(S'your'
S'problem'
tp289
a(S'for'
p290
S'this'
tp291
a(S'about'
p292
S'your'
tp293
a(S'know'
S'the'
tp294
a(S'and'
S'i'
tp295
a(S'mean'
S'``'
p296
tp297
a(S'``'
S'What'
tp298
a(S'the'
p299
S'original'
p300
tp301
a(S'that'
p302
S'would'
p303
tp304
a(S'here'
p305
S'?'
tp306
a(S'i'
S'wonder'
tp307
a(S'create'
p308
S'a'
tp309
a(S'the'
S'text'
p310
tp311
a(S'kind'
p312
S'of'
p313
tp314
a(S'can'
p315
S'we'
p316
tp317
a(S'make'
S'a'
tp318
a(S'like'
S'the'
tp319
a(S'a'
S'little'
p320
tp321
a(S'you'
S'have'
p322
tp323
a(S'on'
p324
S'a'
tp325
a(S'i'
S'put'
tp326
a(S'i'
S'saw'
p327
tp328
a(S'hard'
p329
S'to'
tp330
a(S'possible'
p331
S'to'
tp332
a(S'instead'
p333
S'of'
p334
tp335
a(S'got'
p336
S'a'
tp337
a(S'please'
S'provide'
tp338
a(S'for'
p339
S'example'
tp340
a(S'you'
S'make'
p341
tp342
a(S'want'
S'a'
tp343
a(S'what'
p344
S'kind'
tp345
a(S'you'
S'saying'
p346
tp347
a(S'into'
p348
S'the'
p349
tp350
a(S'is'
p351
S'?'
tp352
a(S'have'
S'?'
tp353
a(S'have'
p354
S'you'
p355
tp356
a(S'is'
p357
S'that'
p358
tp359
a(S'in'
p360
S'what'
p361
tp362
a(S'you'
S'post'
p363
tp364
a(S'according'
p365
S'to'
tp366
a(S'that'
p367
S'this'
tp368
a(S'What'
S'exactly'
p369
tp370
a(S'you'
p371
S'would'
tp372
a(S'i'
S'should'
tp373
a(S'about'
p374
S'it'
p375
tp376
a(S'would'
p377
S'you'
p378
tp379
a(S'wondering'
S'if'
tp380
a(S'the'
S'other'
p381
tp382
a(S'a'
S'specific'
p383
tp384
a(S'make'
S'the'
p385
tp386
a(S'are'
S'trying'
tp387
a(S'more'
S'details'
p388
tp389
a(S'please'
S'add'
tp390
a(S'need'
p391
S'a'
tp392
a(S'think'
S'this'
p393
tp394
a(S'but'
p395
S'not'
tp396
a(S'thanks'
p397
S'for'
tp398
a(S'understand'
p399
S'your'
tp400
a(S'looking'
p401
S'for'
tp402
a(S'than'
S'the'
p403
tp404
a(S'you'
S'be'
tp405
a(S'not'
S'the'
tp406
a(S'to'
p407
S'it'
tp408
a(S'if'
p409
S'they'
p410
tp411
a(S'with'
p412
S'a'
tp413
a(S'this'
p414
S'a'
tp415
a(S'where'
p416
S'you'
p417
tp418
a(S'happen'
S'to'
p419
tp420
a(g119
S'to'
p421
tp422
a(S'using'
p423
S'?'
tp424
a(S'list'
p425
S'of'
p426
tp427
a(S"'m"
S'sorry'
tp428
a(S'sure'
S'that'
tp429
a(S'44'
S'are'
tp430
a(S'Could'
S'you'
p431
tp432
a(S'back'
p433
S'to'
tp434
a(S'what'
p435
S'are'
tp436
a(S'want'
p437
S'to'
p438
tp439
a(S'to'
S'keep'
p440
tp441
a(S'i'
S'can'
p442
tp443
a(S'are'
p444
S"n't"
p445
tp446
a(S'like'
p447
S'a'
tp448
a(S'a'
S'similar'
p449
tp450
a(S'Why'
p451
S'are'
tp452
a(S'know'
p453
S'how'
p454
tp455
a(S'If'
S'the'
p456
tp457
a(S'at'
p458
S'a'
tp459
a(S'where'
p460
S'is'
tp461
a(S'be'
p462
S'an'
tp463
a(S'about'
p464
S'?'
tp465
a(S'be'
S'in'
tp466
a(S'this'
p467
S'page'
p468
tp469
a(S'the'
p470
S'output'
tp471
a(S'the'
S'top'
p472
tp473
a(S'know'
S'where'
p474
tp475
a(S'page'
p476
S'to'
tp477
a(S'how'
S'did'
p478
tp479
a(S"''"
p480
S'is'
tp481
a(S'use'
p482
S'of'
p483
tp484
a(S'make'
S'sense'
tp485
a(S'would'
p486
S'be'
p487
tp488
a(S'see'
S'that'
tp489
a(S'if'
p490
S'we'
p491
tp492
a(S'one'
S'?'
tp493
a(S'something'
p494
S'that'
tp495
a(S'is'
S'only'
p496
tp497
a(S'if'
p498
S'I'
tp499
a(S'with'
p500
S'an'
tp501
a(S'Perhaps'
p502
S'you'
tp503
a(S'the'
p504
S'title'
p505
tp506
a(S'am'
p507
S'I'
tp508
a(S'all'
S'of'
tp509
a(S'has'
p510
S'a'
tp511
a(S'you'
S'going'
tp512
a(S'which'
S'is'
tp513
a(S'sure'
S'you'
tp514
a(S'I'
S'did'
p515
tp516
a(S'to'
p517
S'answer'
tp518
a(S'it'
p519
S'and'
p520
tp521
a(S'a'
S'more'
p522
tp523
a(S'data'
p524
S'?'
tp525
a(S'more'
S'specific'
p526
tp527
a(S'i'
S'just'
p528
tp529
a(S'you'
S'elaborate'
p530
tp531
a(S'the'
S'file'
p532
tp533
a(S'to'
p534
S'clarify'
tp535
a(S'on'
p536
S'?'
tp537
a(S'could'
p538
S'be'
p539
tp540
a(S'I'
S'ca'
tp541
a(S'what'
S'it'
p542
tp543
a(S'not'
S'really'
p544
tp545
a(S'let'
p546
S'me'
p547
tp548
a(S'difference'
p549
S'between'
p550
tp551
a(S'to'
p552
S'remove'
p553
tp554
a(S'a'
S'look'
tp555
a(S'44'
S'not'
p556
tp557
a(S'you'
S'use'
tp558
a(S'it'
p559
S'was'
p560
tp561
a(S'What'
S'do'
tp562
a(S'I'
S'see'
p563
tp564
a(S'the'
p565
S'exact'
p566
tp567
a(S'all'
p568
S'the'
tp569
a(S'type'
p570
S'of'
tp571
a(S'I'
S'understand'
p572
tp573
a(S'is'
p574
S'more'
p575
tp576
a(S'wo'
p577
S"n't"
tp578
a(S'you'
p579
S'are'
p580
tp581
a(S'the'
p582
S'whole'
p583
tp584
a(S'and'
S'why'
tp585
a(S'to'
p586
S'delete'
p587
tp588
a(S'good'
S'idea'
p589
tp590
a(S'44'
S'but'
tp591
a(S'then'
p592
S'?'
tp593
a(g105
S'is'
p594
tp595
a(S'and'
S'you'
tp596
a(S'you'
S'need'
p597
tp598
a(S'did'
p599
S'not'
tp600
a(S'something'
p601
S'?'
tp602
a(S'you'
S'for'
p603
tp604
a(S'for'
p605
S'that'
p606
tp607
a(S'44'
S'it'
tp608
a(S'can'
S'i'
tp609
a(S'familiar'
p610
S'with'
p611
tp612
a(S'for'
p613
S'each'
p614
tp615
a(S'know'
p616
S'that'
p617
tp618
a(S'looking'
S'at'
tp619
a(S'you'
S'set'
tp620
a(S'do'
p621
S'i'
tp622
a(S'or'
p623
S'just'
p624
tp625
a(S'articles'
p626
S'?'
tp627
a(S'or'
S'should'
tp628
a(S'mean'
S'to'
p629
tp630
a(S'have'
S'a'
tp631
a(S'why'
S'would'
tp632
a(S'you'
S'find'
p633
tp634
a(S'time'
p635
S'to'
tp636
a(S'44'
S'since'
p637
tp638
a(S'any'
S'way'
tp639
a(g520
S'see'
p640
tp641
a(S'working'
g536
tp642
a(S'i'
S'did'
tp643
a(S'to'
p644
S'write'
p645
tp646
a(S'enough'
p647
S'to'
p648
tp649
a(S'44'
S'which'
p650
tp651
a(S'the'
p652
S'code'
p653
tp654
a(S'at'
p655
S'all'
p656
tp657
a(S'wrong'
S'with'
p658
tp659
a(S'I'
S'missing'
p660
tp661
a(S'or'
S'are'
tp662
a(S'reason'
S'for'
tp663
a(S'can'
g137
tp664
a(S'else'
p665
S'?'
tp666
a(S'be'
S'?'
tp667
a(S'by'
S'``'
p668
tp669
a(S'to'
S'give'
tp670
a(S'is'
p671
S'it'
p672
tp673
a(S'that'
p674
S'i'
tp675
a(S'you'
S'add'
tp676
a(S'about'
S'this'
p677
tp678
a(S'homework'
S'?'
tp679
a(S'to'
p680
S'show'
p681
tp682
a(S'at'
S'it'
tp683
a(S'i'
S'could'
tp684
a(S'Is'
S'this'
p685
tp686
a(S'the'
p687
S'data'
p688
tp689
a(S'can'
p690
S'be'
p691
tp692
a(S'as'
p693
S'it'
p694
tp695
a(S'you'
S'also'
p696
tp697
a(g594
S'an'
p698
tp699
a(S'I'
S'want'
tp700
a(S'try'
p701
S'to'
p702
tp703
a(S'it'
p704
S'work'
p705
tp706
a(S'what'
S'exactly'
tp707
a(S'but'
p708
S'the'
p709
tp710
a(S'just'
S'to'
p711
tp712
a(S'we'
p713
S"'re"
p714
tp715
a(S'to'
p716
S'put'
p717
tp718
a(S'do'
p719
S'the'
tp720
a(S'the'
S'way'
p721
tp722
a(S'but'
S'do'
tp723
a(S'should'
p724
S"n't"
p725
tp726
a(S'up'
p727
S'?'
tp728
a(S'but'
S'that'
p729
tp730
a(S'there'
p731
S'?'
tp732
a(S'where'
p733
S'the'
p734
tp735
a(S'how'
p736
S'many'
p737
tp738
a(S'you'
S'getting'
p739
tp740
a(S'the'
p741
S'edit'
tp742
a(S'wikipedia'
S'?'
tp743
a(S'related'
p744
S'to'
tp745
a(S'of'
S'curiosity'
p746
tp747
a(S'to'
S'run'
p748
tp749
a(S'to'
S'add'
p750
tp751
a(S'before'
p752
S'the'
tp753
a(S'a'
S'particular'
p754
tp755
a(S'give'
p756
S'an'
p757
tp758
a(S'access'
p759
S'to'
tp760
a(S'you'
S'might'
p761
tp762
a(S'you'
S'trying'
p763
tp764
a(S'the'
p765
S'time'
p766
tp767
a(S'the'
p768
S'line'
p769
tp770
a(S'the'
p771
S'server'
p772
tp773
a(S'it'
p774
S'up'
tp775
a(S'on'
p776
S'it'
tp777
a(S'make'
p778
g704
tp779
a(S"n't"
S'seem'
p780
tp781
a(S'There'
S'are'
p782
tp783
a(S'will'
p784
S'be'
p785
tp786
a(S'not'
S'?'
tp787
a(S'I'
S'just'
p788
tp789
a(S'work'
S'for'
tp790
a(S'the'
S'two'
p791
tp792
a(S"n't"
g63
tp793
a(S"n't"
S'it'
p794
tp795
a(S'the'
p796
S'first'
p797
tp798
a(S'problem'
p799
S'?'
tp800
a(S'if'
p801
S'this'
tp802
a(S'page'
p803
S'?'
tp804
a(S'please'
S'clarify'
tp805
a(S'so'
p806
g97
tp807
a(S'i'
S'know'
tp808
a(S'it'
p809
S'in'
tp810
a(S'after'
p811
S'the'
p812
tp813
a(S'why'
p814
S'are'
tp815
a(S'why'
S'not'
p816
tp817
a(S'i'
S'understand'
tp818
a(S'You'
S"'re"
tp819
a(S'example'
S'of'
tp820
a(S'you'
S'see'
tp821
a(S'tried'
p822
S'?'
tp823
a(S"'s"
S'an'
tp824
a(S'to'
p825
S'do'
p826
tp827
a(S'44'
p828
S'and'
tp829
a(S'how'
S'are'
p830
tp831
a(S'you'
S'already'
p832
tp833
a(S'mean'
S'the'
p834
tp835
a(S'based'
p836
S'on'
tp837
a(S'understand'
S'the'
p838
tp839
a(S'no'
S'?'
tp840
a(S'was'
p841
S'that'
tp842
a(S'make'
p843
S'sure'
tp844
a(S'your'
S'question'
tp845
a(S'they'
p846
S'are'
p847
tp848
a(S'a'
S'``'
p849
tp850
a(S'the'
p851
S'second'
p852
tp853
a(S'give'
p854
S'me'
p855
tp856
a(S'you'
S'consider'
p857
tp858
a(S'get'
S'a'
tp859
a(S'happens'
p860
S'when'
tp861
a(S'clarify'
p862
S'?'
tp863
a(S'ideas'
S'?'
tp864
a(S'what'
g671
tp865
a(S'ca'
p866
S"n't"
p867
tp868
a(S'give'
p869
S'us'
p870
tp871
a(S'the'
p872
S'``'
p873
tp874
a(S'that'
p875
S'you'
p876
tp877
a(S'some'
S'other'
p878
tp879
a(S'as'
p880
S'i'
tp881
a(S'am'
S'not'
p882
tp883
a(S'the'
p884
S'main'
p885
tp886
a(S'again'
p887
S'?'
tp888
a(S'and'
S'is'
p889
tp890
a(S'post'
S'the'
p891
tp892
a(S'reason'
p893
S'you'
tp894
a(S'willing'
p895
S'to'
tp896
a(S'question'
S'to'
tp897
a(S'you'
p898
S'can'
p899
tp900
a(S'added'
S'a'
tp901
a(S'44'
S'right'
tp902
a(S'this'
p903
S'be'
tp904
a(g648
S'move'
p905
tp906
a(S'how'
p907
S'is'
tp908
a(S'a'
S'new'
p909
tp910
a(S'to'
p911
S'explain'
tp912
a(S'talk'
S'page'
p913
tp914
a(S'44'
S'is'
tp915
a(S"n't"
g453
tp916
a(S'needs'
p917
S'to'
tp918
a(S'so'
S'what'
tp919
a(S'mean'
S'?'
tp920
a(S'to'
S'see'
tp921
a(S'you'
S'think'
p922
tp923
a(g375
S'?'
tp924
a(S'Have'
p925
S'you'
tp926
a(S'you'
p927
S'explain'
p928
tp929
a(S'so'
S'i'
tp930
a(S'does'
p931
S'not'
p932
tp933
a(g421
g123
tp934
a(S'would'
S'it'
p935
tp936
a(S'if'
S'you'
p937
tp938
a(S'are'
p939
S'there'
tp940
a(S'but'
S'i'
tp941
a(S'could'
p942
S"n't"
p943
tp944
a(S'can'
g38
tp945
a(S'was'
p946
S'the'
p947
tp948
a(S'does'
S'that'
p949
tp950
a(S'on'
p951
S'the'
p952
tp953
a(S'and'
p954
S'that'
p955
tp956
a(S'Can'
g927
tp957
a(S'the'
p958
S'array'
p959
tp960
a(S'you'
p961
g178
tp962
a(S'44'
S'would'
tp963
a(S'added'
p964
S'to'
p965
tp966
a(S'allowed'
p967
S'to'
tp968
a(S'depends'
p969
S'on'
tp970
a(S'in'
p971
S'?'
tp972
a(S'it'
S'not'
p973
tp974
a(S'Why'
S'is'
p975
tp976
a(S'the'
S'picture'
p977
tp978
a(S'a'
S'better'
p979
tp980
a(S'that'
p981
S'there'
p982
tp983
a(S'maybe'
S'you'
tp984
a(S'think'
S'that'
tp985
a(S'34'
S'and'
tp986
a(S'sure'
S'I'
tp987
a(g58
S'this'
p988
tp989
a(S'to'
p990
S'get'
p991
tp992
a(S'I'
S"'m"
p993
tp994
a(S'like'
p995
g148
tp996
a(S'answer'
p997
S'?'
tp998
a(S'you'
g862
tp999
a(S'if'
p1000
S'i'
tp1001
a(S'he'
p1002
S"'s"
p1003
tp1004
a(S'44'
S'please'
tp1005
a(S'post'
S'a'
tp1006
a(S'exactly'
p1007
S'?'
tp1008
a(g355
g822
tp1009
a(S'i'
S'would'
p1010
tp1011
a(S'there'
S'any'
p1012
tp1013
a(S'bit'
S'of'
p1014
tp1015
a(S'44'
S'i'
tp1016
a(S'you'
S'looking'
tp1017
a(S'i'
S'believe'
p1018
tp1019
a(S'you'
g336
tp1020
a(S'you'
S'added'
tp1021
a(S'are'
S'they'
p1022
tp1023
a(S'take'
S'a'
tp1024
a(S'find'
p1025
S'a'
tp1026
a(S'over'
p1027
S'the'
p1028
tp1029
a(S'with'
p1030
S'this'
tp1031
a(S'have'
p1032
S'to'
p1033
tp1034
a(S'so'
p1035
S'far'
p1036
tp1037
a(S'the'
S'images'
p1038
tp1039
a(S'you'
S'asking'
p1040
tp1041
a(S'have'
S"n't"
p1042
tp1043
a(S'be'
S'a'
tp1044
a(S'not'
S'in'
p1045
tp1046
a(S'answer'
p1047
S'to'
tp1048
a(S'etc'
S'?'
tp1049
a(S'use'
S'?'
tp1050
a(S'we'
p1051
S'do'
tp1052
a(S'the'
p1053
S'number'
tp1054
a(S'and'
p1055
S'what'
tp1056
a(S'anything'
p1057
S'else'
p1058
tp1059
a(S'for'
p1060
S'the'
tp1061
a(S'to'
p1062
S'a'
tp1063
a(S'if'
S'so'
p1064
tp1065
a(S'think'
S'about'
p1066
tp1067
a(S'the'
S'case'
p1068
tp1069
a(S'should'
p1070
S'be'
p1071
tp1072
a(S'that'
p1073
S'a'
tp1074
a(S'you'
S'could'
p1075
tp1076
a(S'you'
S'provide'
p1077
tp1078
a(S'because'
p1079
S'the'
tp1080
a(S'from'
p1081
S'the'
p1082
tp1083
a(S'problem'
p1084
S'with'
p1085
tp1086
a(S'the'
S'difference'
tp1087
a(g943
g778
tp1088
a(S'more'
p1089
S'detail'
tp1090
a(S'what'
S'does'
tp1091
a(S'sounds'
p1092
S'like'
tp1093
a(S'as'
p1094
S'well'
tp1095
a(S'this'
p1096
S'in'
p1097
tp1098
a(S'to'
S'have'
p1099
tp1100
a(S'44'
S'to'
tp1101
a(S'too'
p1102
S'?'
tp1103
a(S'me'
S'a'
tp1104
a(S'of'
p1105
S'your'
p1106
tp1107
a(S'What'
S'does'
p1108
tp1109
a(S'a'
S'simple'
p1110
tp1111
a(S'between'
p1112
S'the'
p1113
tp1114
a(S'not'
p1115
S'sure'
p1116
tp1117
a(S'What'
S"'s"
tp1118
a(S'into'
p1119
S'a'
tp1120
a(S'article'
p1121
S'is'
tp1122
a(g263
S'is'
p1123
tp1124
a(S'I'
S'could'
p1125
tp1126
a(S'Does'
S'it'
p1127
tp1128
a(S"'d"
S'like'
tp1129
a(S'to'
S'your'
p1130
tp1131
a(S'you'
g423
tp1132
a(S'the'
p1133
S'new'
p1134
tp1135
a(S'the'
p1136
g803
tp1137
a(S'exactly'
p1138
S'do'
tp1139
a(S'explain'
p1140
S'what'
p1141
tp1142
a(S'did'
p1143
S'i'
tp1144
a(S'perhaps'
p1145
S'you'
tp1146
a(S'was'
p1147
S'not'
p1148
tp1149
a(S'as'
p1150
S'a'
tp1151
a(S'Is'
S'that'
p1152
tp1153
a(S'would'
S"n't"
tp1154
a(S'only'
p1155
S'one'
p1156
tp1157
a(S'noticed'
p1158
S'that'
p1159
tp1160
a(S'you'
S'should'
p1161
tp1162
a(S'the'
p1163
S'list'
p1164
tp1165
a(g231
S'a'
tp1166
a(S'lot'
p1167
S'of'
p1168
tp1169
a(S'this'
p1170
S'to'
tp1171
a(S'and'
S'do'
tp1172
a(S'a'
S'few'
p1173
tp1174
a(S'how'
S'can'
tp1175
a(S'Or'
S'is'
p1176
tp1177
a(S'looks'
p1178
S'like'
p1179
tp1180
a(S'amount'
p1181
S'of'
tp1182
a(S'purpose'
p1183
S'of'
tp1184
a(S'in'
S'that'
p1185
tp1186
a(S'44'
S'could'
tp1187
a(S'why'
S'the'
p1188
tp1189
a(S'you'
p1190
S'get'
p1191
tp1192
a(S'the'
S'best'
p1193
tp1194
a(S'me'
S'to'
tp1195
a(S'seems'
S'like'
tp1196
a(S'on'
p1197
S'how'
tp1198
a(S'the'
p1199
S'last'
p1200
tp1201
a(S'44'
S'where'
p1202
tp1203
a(S'not'
p1204
S'to'
tp1205
a(S'or'
p1206
S'a'
tp1207
a(S'How'
S'is'
tp1208
a(S'I'
S'find'
p1209
tp1210
a(S'Why'
S'do'
tp1211
a(S'instead'
p1212
S'?'
tp1213
a(S'agree'
p1214
S'with'
p1215
tp1216
a(S'set'
p1217
S'of'
p1218
tp1219
a(S'How'
S'about'
p1220
tp1221
a(S'I'
S'would'
p1222
tp1223
a(S'Do'
S'you'
tp1224
a(S'not'
p1225
S'use'
p1226
tp1227
a(S'44'
S'or'
tp1228
a(S'i'
S'was'
p1229
tp1230
a(S'error'
p1231
S'?'
tp1232
a(S'it'
p1233
g1178
tp1234
a(S'link'
S'?'
tp1235
a(S'be'
S'better'
p1236
tp1237
a(S'out'
p1238
S'?'
tp1239
a(S'when'
p1240
S'the'
p1241
tp1242
a(S'a'
S'different'
p1243
tp1244
a(S'to'
p1245
g399
tp1246
a(S'the'
p1247
S'point'
p1248
tp1249
a(S'if'
p1250
S'that'
p1251
tp1252
a(S'Is'
S'your'
tp1253
a(S'give'
p1254
S'you'
p1255
tp1256
a(S'it'
S'might'
p1257
tp1258
a(S'that'
S"'s"
p1259
tp1260
a(S'i'
S'had'
tp1261
a(S'to'
p1262
S'change'
p1263
tp1264
a(S'think'
S'we'
tp1265
a(g826
S'?'
tp1266
a(S'where'
S'did'
tp1267
a(S"n't"
S'find'
p1268
tp1269
a(S'i'
S'noticed'
tp1270
a(S'should'
p1271
S'i'
tp1272
a(S'but'
S'in'
tp1273
a(S'This'
S'question'
p1274
tp1275
a(S'name'
p1276
S'of'
tp1277
a(S'for'
S'an'
p1278
tp1279
a(S'the'
S'site'
p1280
tp1281
a(S'why'
p1282
S'you'
tp1283
a(g478
S'it'
tp1284
a(S'sure'
S'what'
tp1285
a(S'and'
p1286
S'a'
tp1287
a(S'do'
S'to'
tp1288
a(g660
S'something'
tp1289
a(S'what'
p1290
g107
tp1291
a(S'through'
S'the'
tp1292
a(S'an'
p1293
S'answer'
p1294
tp1295
a(S'are'
S'the'
p1296
tp1297
a(S'to'
p1298
S'you'
p1299
tp1300
a(S'the'
S'answer'
tp1301
a(S'to'
S'solve'
p1302
tp1303
a(S'just'
p1304
S'a'
tp1305
a(g975
S'your'
p1306
tp1307
a(S'out'
S'the'
p1308
tp1309
a(S'is'
S'going'
tp1310
a(S'something'
p1311
S'like'
tp1312
a(S'it'
p1313
S'just'
p1314
tp1315
a(S'and'
p1316
S'not'
p1317
tp1318
a(S'not'
S'just'
p1319
tp1320
a(S'what'
p1321
S'?'
tp1322
a(g658
S'the'
p1323
tp1324
a(S'I'
S'am'
p1325
tp1326
a(S'did'
p1327
S'you'
p1328
tp1329
a(S'you'
S"'ll"
p1330
tp1331
a(g1036
S'?'
tp1332
a(S'where'
p1333
S'do'
tp1334
a(S'has'
p1335
S'to'
tp1336
a(S'your'
p1337
S'user'
p1338
tp1339
a(S'need'
p1340
S'to'
p1341
tp1342
a(S'34'
S'?'
tp1343
a(S'about'
p1344
S'what'
tp1345
a(S'...'
p1346
S'?'
tp1347
a(S'that'
S'we'
tp1348
a(S'a'
S'single'
p1349
tp1350
a(S'of'
S'any'
tp1351
a(S'way'
p1352
S'to'
tp1353
a(S'that'
S'?'
tp1354
a(S'i'
S'thought'
p1355
tp1356
a(S'better'
p1357
S'?'
tp1358
a(S'I'
S"'ve"
p1359
tp1360
a(S'but'
g121
tp1361
a(S'you'
p1362
S'sure'
p1363
tp1364
a(S'from'
p1365
S'a'
tp1366
a(S'happens'
S'if'
tp1367
a(g757
S'example'
p1368
tp1369
a(S'is'
p1370
S'``'
p1371
tp1372
a(S'it'
p1373
S'on'
tp1374
a(S'what'
S'i'
tp1375
a(S'and'
p1376
S'the'
p1377
tp1378
a(S'i'
S'think'
tp1379
a(S'anything'
p1380
S'about'
tp1381
a(g1248
S'of'
tp1382
a(S'you'
S'feel'
p1383
tp1384
a(S'up'
p1385
S'the'
tp1386
a(S'able'
p1387
S'to'
p1388
tp1389
a(S'it'
p1390
S'does'
tp1391
a(S'going'
p1392
g65
tp1393
a(S'on'
p1394
S'that'
p1395
tp1396
a(S"'s"
p1397
S'your'
p1398
tp1399
a(S'an'
g183
tp1400
a(S'Does'
S'that'
p1401
tp1402
a(S'I'
S'need'
tp1403
a(S'you'
p1404
g280
tp1405
a(S'up'
p1406
S'with'
p1407
tp1408
a(S'or'
p1409
S'some'
p1410
tp1411
a(S'of'
p1412
g958
tp1413
a(S'clarify'
S'what'
tp1414
a(S'using'
p1415
S'a'
tp1416
a(S'have'
S'some'
tp1417
a(g1306
S'code'
p1418
tp1419
a(S"'s"
S'not'
p1420
tp1421
a(S'and'
S'have'
tp1422
a(S'would'
S'have'
p1423
tp1424
a(S'to'
S'just'
p1425
tp1426
a(S'when'
p1427
S'it'
tp1428
a(S'from'
p1429
S'your'
tp1430
a(S'this'
S'homework'
tp1431
a(S'this'
p1432
S'one'
tp1433
a(S'the'
S'result'
p1434
tp1435
a(S'we'
g391
tp1436
a(S'question'
p1437
S'?'
tp1438
a(g1097
S'my'
p1439
tp1440
a(S'you'
S'running'
p1441
tp1442
a(S'any'
p1443
S'more'
p1444
tp1445
a(S'supposed'
p1446
g990
tp1447
a(S'code'
p1448
S'?'
tp1449
a(S'this'
S'article'
p1450
tp1451
a(S'is'
g150
tp1452
a(S'for'
p1453
S'a'
tp1454
a(S"'m"
g1115
tp1455
a(S'at'
p1456
S'this'
p1457
tp1458
a(g780
S'to'
p1459
tp1460
a(S'help'
p1461
S'you'
p1462
tp1463
a(S'when'
p1464
S'I'
tp1465
a(g633
S'the'
p1466
tp1467
a(S"'re"
S'not'
p1468
tp1469
a(S'language'
S'?'
tp1470
a(S"n't"
S'want'
tp1471
a(S'to'
S'achieve'
p1472
tp1473
a(S'you'
p1474
S'please'
p1475
tp1476
a(S'about'
p1477
S'the'
p1478
tp1479
a(S'i'
S"'ve"
p1480
tp1481
a(S'by'
p1482
S'a'
tp1483
a(S'the'
S'user'
p1484
tp1485
a(S'out'
p1486
g1105
tp1487
a(S'you'
S'ever'
p1488
tp1489
a(S'but'
S'this'
p1490
tp1491
a(S'i'
S'do'
tp1492
a(S'see'
p1493
S'the'
p1494
tp1495
a(S'Does'
S'the'
p1496
tp1497
a(S'it'
p1498
g1070
tp1499
a(S'you'
p1500
S'will'
p1501
tp1502
a(S'you'
p1503
S'suggest'
p1504
tp1505
a(S'to'
p1506
S'my'
p1507
tp1508
a(S'file'
p1509
S'?'
tp1510
a(S'to'
p1511
S'go'
p1512
tp1513
a(S'number'
p1514
S'of'
p1515
tp1516
a(g922
S'it'
tp1517
a(S'to'
S'check'
p1518
tp1519
a(S'are'
S'not'
p1520
tp1521
a(S'provide'
S'a'
tp1522
a(S'talking'
p1523
g1477
tp1524
a(S'why'
p1525
S'?'
tp1526
a(S'page'
p1527
S'is'
p1528
tp1529
a(S'I'
S'know'
p1530
tp1531
a(S"n't"
p1532
S'really'
p1533
tp1534
a(S'to'
p1535
g308
tp1536
a(S'the'
S'discussion'
tp1537
a(S'show'
S'the'
tp1538
a(S'to'
p1539
S'?'
tp1540
a(S'of'
S'``'
p1541
tp1542
a(S'How'
S'can'
tp1543
a(S'do'
S'you'
p1544
tp1545
a(S'use'
S'the'
tp1546
a(S'with'
S'that'
p1547
tp1548
a(S'do'
S'that'
tp1549
a(S'there'
S'some'
tp1550
a(S"'s"
p1551
S'talk'
p1552
tp1553
a(S'I'
S'thought'
p1554
tp1555
a(S"''"
p1556
S'and'
p1557
tp1558
a(S'If'
S'you'
tp1559
a(S'to'
S'say'
tp1560
a(S'a'
S'couple'
p1561
tp1562
a(S'or'
p1563
S'the'
p1564
tp1565
a(S'an'
S'error'
p1566
tp1567
a(S'should'
S'we'
p1568
tp1569
a(S'to'
p1570
S'make'
p1571
tp1572
a(S'any'
p1573
S'chance'
p1574
tp1575
a(S'that'
S'does'
tp1576
a(S'give'
p1577
S'a'
tp1578
a(S'you'
p1579
S'like'
p1580
tp1581
a(S'Is'
g765
tp1582
a(S'What'
S'about'
p1583
tp1584
a(S'you'
S'take'
p1585
tp1586
a(S'other'
p1587
S'than'
p1588
tp1589
a(g691
S'done'
p1590
tp1591
a(S'it'
p1592
g1335
tp1593
a(S'to'
p1594
S'the'
p1595
tp1596
a(g1040
S'for'
p1597
tp1598
a(S'end'
p1599
S'of'
tp1600
a(S'you'
S'actually'
p1601
tp1602
a(S'44'
S'why'
tp1603
a(S'on'
p1604
S'my'
p1605
tp1606
a(g253
S'it'
p1607
tp1608
a(S'edit'
p1609
S'the'
tp1610
a(S'under'
p1611
S'the'
tp1612
a(S'That'
S"'s"
tp1613
a(S'the'
S'correct'
p1614
tp1615
a(S'me'
S'?'
tp1616
a(S'do'
S'with'
tp1617
a(S'This'
S'is'
p1618
tp1619
a(S'now'
p1620
S'?'
tp1621
a(S'with'
S'you'
p1622
tp1623
a(S'tried'
g1245
tp1624
a(S'with'
p1625
S'?'
tp1626
a(S'with'
p1627
S'it'
tp1628
a(S'is'
S'just'
tp1629
a(S'Is'
S'it'
p1630
tp1631
a(S'is'
S'not'
tp1632
a(S'I'
S'think'
p1633
tp1634
a(S'look'
p1635
S'at'
tp1636
a(S'user'
S'page'
tp1637
a(S'not'
S'be'
tp1638
a(S'wanted'
p1639
S'to'
p1640
tp1641
a(S'this'
S'problem'
tp1642
a(S'why'
S'did'
tp1643
a(S'care'
p1644
g911
tp1645
a(S'a'
S'page'
p1646
tp1647
a(S'44'
S'there'
tp1648
a(S'that'
g1002
tp1649
a(S'I'
S'assume'
tp1650
a(S'Would'
g1579
tp1651
a(S'the'
S'bot'
p1652
tp1653
a(g1494
S'error'
p1654
tp1655
a(S'Is'
S"n't"
p1656
tp1657
a(S"n't"
S'see'
p1658
tp1659
a(S'of'
p1660
S'a'
tp1661
a(S'I'
S'get'
p1662
tp1663
a(S'a'
S'user'
tp1664
a(g472
S'of'
tp1665
a(S'you'
S'mean'
p1666
tp1667
a(S'this'
S'case'
p1668
tp1669
a(S'as'
S'the'
p1670
tp1671
a(S'do'
S'it'
p1672
tp1673
a(S'44'
S'no'
p1674
tp1675
a(S'wonder'
S'if'
tp1676
a(S'more'
p1677
S'than'
p1678
tp1679
a(S'it'
g486
tp1680
a(S'How'
S'do'
tp1681
a(g1668
S'?'
tp1682
a(S'more'
S'information'
p1683
tp1684
a(S'58'
S'i'
tp1685
a(S'yet'
p1686
S'?'
tp1687
a(S'it'
p1688
S'as'
p1689
tp1690
a(S'not'
S'a'
tp1691
a(S'please'
p1692
S'explain'
p1693
tp1694
a(S'do'
S'they'
tp1695
a(S'the'
g1183
tp1696
a(S'there'
S'something'
p1697
tp1698
a(S'the'
p1699
S'next'
p1700
tp1701
a(S'a'
S'reference'
p1702
tp1703
a(S'you'
S'a'
tp1704
a(S'see'
S'how'
p1705
tp1706
a(g410
S'have'
p1707
tp1708
a(S'to'
S'that'
p1709
tp1710
a(S'work'
p1711
S'?'
tp1712
a(S'if'
p1713
S'it'
p1714
tp1715
a(S'and'
S'I'
tp1716
a(S'you'
S'doing'
p1717
tp1718
a(S'explain'
p1719
S'why'
tp1720
a(g349
S'project'
p1721
tp1722
a(S'the'
p1723
S'template'
p1724
tp1725
a(S'know'
S'of'
tp1726
a(S'couple'
S'of'
tp1727
a(S'for'
p1728
S'you'
p1729
tp1730
a(g265
S'check'
p1731
tp1732
a(S'was'
p1733
g1532
tp1734
a(S'to'
p1735
g1321
tp1736
a(g1630
S'a'
tp1737
a(S'Am'
S'I'
tp1738
a(S'get'
p1739
S'the'
p1740
tp1741
a(S'I'
S'do'
p1742
tp1743
a(S'put'
S'the'
p1744
tp1745
a(S'there'
S'anything'
p1746
tp1747
a(S'add'
p1748
S'the'
p1749
tp1750
a(S'a'
S'good'
p1751
tp1752
a(S'exactly'
p1753
S'what'
tp1754
a(S'as'
p1755
S'you'
tp1756
a(S'get'
g43
tp1757
a(S'and'
S'how'
tp1758
a(S'like'
p1759
S'that'
p1760
tp1761
a(S'the'
g1276
tp1762
a(S'and'
g1233
tp1763
a(S'44'
S'what'
p1764
tp1765
a(S'for'
p1766
S'?'
tp1767
a(g1729
S'?'
tp1768
a(S'like'
S'you'
tp1769
a(S'but'
S'how'
tp1770
a(S'mean'
S'by'
p1771
tp1772
a(S'a'
S'source'
tp1773
a(S'the'
p1774
S'content'
p1775
tp1776
a(S'it'
p1777
S'with'
p1778
tp1779
a(S'what'
S'did'
tp1780
a(g1583
S'a'
tp1781
a(S'should'
S'have'
p1782
tp1783
a(S'an'
p1784
S'admin'
p1785
tp1786
a(S'using'
p1787
S'the'
p1788
tp1789
a(S'but'
g1390
tp1790
a(g1263
S'the'
p1791
tp1792
a(S'you'
g701
tp1793
a(S'the'
S'actual'
p1794
tp1795
a(S'``'
p1796
S'I'
tp1797
a(S'what'
S'was'
tp1798
a(S'What'
S'is'
p1799
tp1800
a(S'but'
S'what'
p1801
tp1802
a(S'how'
p1803
S'do'
tp1804
a(S'When'
g961
tp1805
a(S'like'
p1806
S'to'
tp1807
a(S'up'
p1808
S'to'
p1809
tp1810
a(S'the'
p1811
S'current'
p1812
tp1813
a(g587
S'the'
tp1814
a(S'If'
S'so'
p1815
tp1816
a(S'think'
S'i'
tp1817
a(S'ok'
p1818
S'?'
tp1819
a(S'44'
S'can'
tp1820
a(S'how'
S'does'
tp1821
a(S'the'
S'above'
p1822
tp1823
a(S'What'
g354
tp1824
a(g553
S'the'
tp1825
a(S'the'
S'one'
p1826
tp1827
a(S'right'
p1828
S'?'
tp1829
a(S'size'
p1830
S'of'
p1831
tp1832
a(S'it'
S'the'
tp1833
a(g1799
S'the'
p1834
tp1835
a(S'not'
p1836
S'clear'
p1837
tp1838
a(S'that'
p1839
S'the'
p1840
tp1841
a(S'one'
p1842
S'of'
tp1843
a(S'but'
S'you'
tp1844
a(S'of'
p1845
S'these'
p1846
tp1847
a(S'do'
S'this'
p1848
tp1849
a(S'that'
S'it'
tp1850
a(S'list'
S'?'
tp1851
a(S'them'
p1852
S'?'
tp1853
a(S'The'
S'question'
tp1854
a(g144
S"n't"
p1855
tp1856
a(S'lots'
p1857
S'of'
p1858
tp1859
a(S'the'
p1860
S'most'
p1861
tp1862
a(S'something'
p1863
g665
tp1864
a(S'a'
g799
tp1865
a(S'and'
p1866
S'then'
p1867
tp1868
a(S'44'
S'the'
tp1869
a(S'tell'
p1870
S'us'
p1871
tp1872
a(g1341
S'``'
p1873
tp1874
a(S'does'
p1875
S'this'
p1876
tp1877
a(g1209
S'it'
p1878
tp1879
a(S'you'
p1880
S'expect'
p1881
tp1882
a(S'I'
S'have'
p1883
tp1884
a(g1855
g1032
tp1885
a(S'in'
p1886
S'order'
p1887
tp1888
a(S'of'
p1889
S'them'
p1890
tp1891
a(S'the'
S'word'
p1892
tp1893
a(S"''"
p1894
S'in'
tp1895
a(S'know'
S'what'
tp1896
a(S"'s"
S'a'
tp1897
a(S'in'
p1898
S'a'
tp1899
a(S'to'
S'know'
tp1900
a(S'may'
p1901
S'be'
p1902
tp1903
a(S'is'
g414
tp1904
a(S'can'
g719
tp1905
a(S'you'
S'change'
p1906
tp1907
a(g1618
S'a'
tp1908
a(S'on'
p1909
S'what'
tp1910
a(S'read'
p1911
S'the'
p1912
tp1913
a(S'of'
p1914
S'those'
p1915
tp1916
a(S'as'
p1917
S'to'
tp1918
a(S'reason'
S'to'
tp1919
a(S'of'
p1920
S'what'
tp1921
a(S'elaborate'
S'on'
tp1922
a(S'Why'
S'would'
p1923
tp1924
a(S'to'
S'ask'
p1925
tp1926
a(S'in'
S'an'
p1927
tp1928
a(S"'re"
S'trying'
tp1929
a(S'little'
S'more'
tp1930
a(S'what'
S'would'
tp1931
a(S'or'
p1932
S'not'
p1933
tp1934
a(S'we'
p1935
S'have'
tp1936
a(S'any'
S'other'
p1937
tp1938
a(S'what'
S'happens'
p1939
tp1940
a(S'help'
g1030
tp1941
a(S'44'
S'for'
tp1942
a(S'mean'
S'that'
tp1943
a(S'would'
p1944
S'like'
tp1945
a(S'you'
S'referring'
p1946
tp1947
a(S'Or'
S'do'
tp1948
a(S'it'
p1949
S'for'
tp1950
a(S'is'
S'no'
p1951
tp1952
a(S'them'
p1953
S'in'
p1954
tp1955
a(S'some'
p1956
S'code'
tp1957
a(S'be'
S'more'
tp1958
a(S'a'
g1167
tp1959
a(S'it'
S'can'
p1960
tp1961
a(S'you'
g756
tp1962
a(S"n't"
S'work'
p1963
tp1964
a(S'wrong'
p1965
S'?'
tp1966
a(S'should'
p1967
S'I'
tp1968
a(S'in'
p1969
S'any'
p1970
tp1971
a(S'Do'
S"n't"
tp1972
a(S'any'
p1973
S'of'
tp1974
a(S"n't"
g1190
tp1975
a(g1640
g1911
tp1976
a(S'no'
S'idea'
p1977
tp1978
a(S'in'
S'the'
p1979
tp1980
a(S'the'
S'end'
p1981
tp1982
a(S'we'
p1983
S'can'
p1984
tp1985
a(S'what'
S'do'
tp1986
a(S'in'
p1987
S'this'
p1988
tp1989
a(S'Are'
S'the'
p1990
tp1991
a(S'yourself'
p1992
S'?'
tp1993
a(S'i'
S'have'
tp1994
a(S'you'
S"'re"
p1995
tp1996
a(S'have'
S'any'
p1997
tp1998
a(S'the'
S'source'
p1999
tp2000
a(S'it'
S'seems'
tp2001
a(S'on'
p2002
S'wikipedia'
tp2003
a(S'are'
S'your'
p2004
tp2005
a(S'just'
p2006
S'the'
tp2007
a(S'i'
S'see'
p2008
tp2009
a(S'you'
S'on'
p2010
tp2011
a(S'do'
g1935
tp2012
a(S'44'
S'then'
p2013
tp2014
a(S'problem'
S'is'
p2015
tp2016
a(S'of'
S'my'
tp2017
a(S'in'
p2018
S'your'
p2019
tp2020
a(g1705
S'you'
tp2021
a(S'about'
S'that'
p2022
tp2023
a(S'part'
p2024
g1660
tp2025
a(S'at'
p2026
S'least'
p2027
tp2028
a(S'why'
S'is'
tp2029
a(S'44'
S'in'
tp2030
a(S'see'
S'if'
tp2031
a(S'you'
S'were'
p2032
tp2033
a(S'it'
g331
tp2034
a(S'correct'
S'?'
tp2035
a(S'may'
S'i'
tp2036
a(S'will'
p2037
S'you'
tp2038
a(S'Are'
S'there'
tp2039
a(S'way'
p2040
S'?'
tp2041
a(S'name'
p2042
S'?'
tp2043
a(S'or'
p2044
S'do'
tp2045
a(S'the'
S'future'
tp2046
a(S'tell'
p2047
S'me'
p2048
tp2049
a(S'is'
S'still'
p2050
tp2051
a(S'are'
p2052
S'using'
p2053
tp2054
a(S'I'
S'guess'
p2055
tp2056
a(S'to'
S'work'
p2057
tp2058
a(S'exactly'
p2059
S'are'
tp2060
a(S'that'
S'was'
tp2061
a(S'to'
S'include'
tp2062
a(g1141
g1880
tp2063
a(S'you'
S'interested'
tp2064
a(g1368
S'?'
tp2065
a(S'it'
p2066
S'from'
p2067
tp2068
a(S'is'
p2069
S'in'
tp2070
a(S'Why'
S'not'
p2071
tp2072
a(S'was'
p2073
S'a'
tp2074
a(S'44'
S'if'
p2075
tp2076
a(S'to'
S'start'
p2077
tp2078
a(S'44'
S'that'
tp2079
a(S'interested'
p2080
S'in'
p2081
tp2082
a(S'as'
S'an'
tp2083
a(S'on'
p2084
S'this'
p2085
tp2086
a(S'since'
p2087
S'it'
tp2088
a(S'an'
S'article'
p2089
tp2090
a(S'this'
p2091
S'is'
p2092
tp2093
a(S'you'
S'really'
p2094
tp2095
a(S'if'
S'the'
tp2096
a(S'have'
p2097
S'an'
p2098
tp2099
a(S'article'
p2100
S'on'
p2101
tp2102
a(g2022
S'one'
p2103
tp2104
a(S'error'
p2105
S'message'
p2106
tp2107
a(S'please'
S'elaborate'
p2108
tp2109
a(S'you'
S'tell'
p2110
tp2111
a(S"n't"
S'that'
p2112
tp2113
a(S'like'
p2114
S'``'
p2115
tp2116
a(S'so'
p2117
g143
tp2118
a(S"n't"
S'get'
tp2119
a(S'i'
S'ca'
tp2120
a(S'so'
S'it'
tp2121
a(S'does'
p2122
S"n't"
p2123
tp2124
a(S'you'
S'mind'
p2125
tp2126
a(S'but'
S'I'
tp2127
a(S'I'
S'can'
p2128
tp2129
a(S"'s"
S'what'
tp2130
a(S'do'
S'I'
tp2131
a(g763
g825
tp2132
a(S'all'
S'?'
tp2133
a(S'For'
S'example'
p2134
tp2135
a(S'that'
p2136
g846
tp2137
a(S'the'
S'reason'
tp2138
a(S'your'
p2139
S'answer'
tp2140
a(S'how'
p2141
S'the'
p2142
tp2143
a(S'to'
S'edit'
p2144
tp2145
a(S"'d"
S'be'
p2146
tp2147
a(S'take'
S'it'
tp2148
a(S'you'
S'ca'
tp2149
a(S'44'
S'do'
tp2150
a(S'which'
S'i'
tp2151
a(S'at'
p2152
S'the'
p2153
tp2154
a(S'there'
p2155
S"'s"
p2156
tp2157
a(S'a'
g893
tp2158
a(S'44'
S'with'
tp2159
a(S'look'
p2160
S'like'
tp2161
a(S'you'
S'to'
tp2162
a(S'a'
S'list'
p2163
tp2164
a(S'to'
S'try'
p2165
tp2166
a(S'because'
p2167
S'i'
tp2168
a(S'Thanks'
S'for'
tp2169
a(S'could'
p2170
g1474
tp2171
a(S"'ve"
S'never'
p2172
tp2173
a(S'What'
g860
tp2174
a(S'say'
p2175
S'that'
p2176
tp2177
a(S'i'
S"'m"
tp2178
a(S'it'
p2179
S"'s"
p2180
tp2181
a(S'for'
p2182
S'your'
p2183
tp2184
a(S'which'
p2185
S'one'
p2186
tp2187
a(S'the'
S'input'
p2188
tp2189
a(S'is'
p2190
g285
tp2191
a(S'to'
p2192
S'this'
p2193
tp2194
a(S'the'
S'answers'
p2195
tp2196
a(S'think'
S'?'
tp2197
a(S'it'
p2198
S'have'
tp2199
a(g1544
g437
tp2200
a(S'44'
S'you'
p2201
tp2202
a(S'i'
S"'ll"
p2203
tp2204
a(S'to'
S'find'
p2205
tp2206
a(S'the'
S'issue'
p2207
tp2208
a(S'How'
S'are'
tp2209
a(g830
S'you'
p2210
tp2211
a(g982
S'are'
p2212
tp2213
a(S'44'
S'so'
tp2214
a(S'Are'
g1362
tp2215
a(S'you'
S'put'
p2216
tp2217
a(S'well'
p2218
S'?'
tp2219
a(S'noticed'
p2220
S'you'
tp2221
a(S'when'
p2222
S'you'
p2223
tp2224
a(g1946
S'to'
tp2225
a(S'the'
p2226
S'right'
p2227
tp2228
a(S"'ve"
S'been'
tp2229
a(S'what'
S'I'
tp2230
a(S'the'
S'image'
p2231
tp2232
a(S'saying'
S'that'
tp2233
a(S'or'
p2234
g52
tp2235
a(g124
S'your'
p2236
tp2237
a(S'you'
p2238
S"'ve"
p2239
tp2240
a(S'44'
S'as'
tp2241
a(S'does'
p2242
S'the'
tp2243
a(S'as'
p2244
S'in'
p2245
tp2246
a(S'i'
S'need'
tp2247
a(S'am'
S'i'
tp2248
a(S'so'
p2249
S'?'
tp2250
a(S'might'
p2251
S'be'
p2252
tp2253
a(S'want'
S'the'
tp2254
a(S'think'
S'the'
p2255
tp2256
a(S'by'
p2257
S'the'
p2258
tp2259
a(S'edits'
p2260
S'to'
tp2261
a(g100
S'?'
tp2262
a(S'my'
g1437
tp2263
a(S'or'
S'is'
tp2264
a(S'rather'
p2265
S'than'
p2266
tp2267
a(S'to'
S'take'
p2268
tp2269
a(S'done'
p2270
S'?'
tp2271
a(S'you'
S"'d"
p2272
tp2273
a(S'the'
S'same'
p2274
tp2275
a(S'issue'
S'?'
tp2276
a(S'someone'
p2277
S'else'
p2278
tp2279
a(S'bit'
p2280
g1089
tp2281
a(S'why'
p2282
S'do'
tp2283
a(S'article'
p2284
S'to'
tp2285
a(S'be'
S'interested'
tp2286
a(S'you'
S'considered'
p2287
tp2288
a(S'Or'
S'are'
tp2289
a(S'what'
p2290
S'about'
p2291
tp2292
a(S'that'
p2293
S'in'
tp2294
a(S'or'
p2295
g1311
tp2296
a(S'help'
p2297
S'?'
tp2298
a(S'you'
S'still'
tp2299
a(S'that'
p2300
S'are'
tp2301
a(S'how'
p2302
S'it'
tp2303
a(S'I'
S"'d"
p2304
tp2305
a(S'not'
p2306
S'work'
tp2307
a(g1714
S'is'
p2308
tp2309
a(S'for'
p2310
S'me'
tp2311
a(S'are'
S'we'
p2312
tp2313
a(S'to'
p2314
S'look'
p2315
tp2316
a(g431
g1225
tp2317
a(S'you'
S'read'
tp2318
a(S'you'
S'removed'
p2319
tp2320
a(S'the'
S'link'
tp2321
a(S'add'
S'a'
tp2322
a(g629
S'an'
p2323
tp2324
a(S'you'
p2325
S'said'
p2326
tp2327
a.