(lp1
(S'it'
p2
S'looks'
p3
tp4
a(S"n't"
S'think'
p5
tp6
a(S'do'
S'not'
tp7
a(S'the'
S'point'
p8
tp9
a(S'thank'
p10
S'you'
p11
tp12
a(S'know'
p13
S'if'
p14
tp15
a(S'44'
S'it'
tp16
a(S'that'
p17
S"'s"
p18
tp19
a(S'i'
S'had'
p20
tp21
a(S'do'
S'?'
tp22
a(S'i'
S'noticed'
tp23
a(S'can'
p24
S'not'
p25
tp26
a(S'a'
S'bit'
p27
tp28
a(S'for'
p29
S'an'
p30
tp31
a(S'trying'
p32
S'to'
tp33
a(S'why'
p34
S'you'
tp35
a(S'sure'
S'what'
tp36
a(S'some'
p37
S'of'
tp38
a(S'an'
p39
S'answer'
p40
tp41
a(S'are'
p42
S'the'
p43
tp44
a(S'a'
S'link'
p45
tp46
a(S'to'
p47
S'you'
tp48
a(S'use'
S'a'
tp49
a(S'just'
p50
S'a'
tp51
a(S'is'
S'your'
tp52
a(S'link'
p53
S'to'
p54
tp55
a(S'have'
S'been'
p56
tp57
a(S'What'
S'have'
tp58
a(S'it'
p59
g50
tp60
a(S'i'
S'will'
p61
tp62
a(S'and'
p63
S'not'
p64
tp65
a(S'44'
S'not'
p66
tp67
a(S'i'
S"'d"
p68
tp69
a(S'that'
p70
S'is'
p71
tp72
a(S'not'
p73
S'just'
p74
tp75
a(S'what'
p76
S'?'
tp77
a(S'with'
p78
S'the'
p79
tp80
a(S'you'
S'know'
p81
tp82
a(S'did'
p83
S'you'
p84
tp85
a(S'to'
p86
S'be'
p87
tp88
a(S'that'
S'I'
tp89
a(S'the'
p90
S'article'
p91
tp92
a(S'34'
S'?'
tp93
a(S'if'
S'there'
p94
tp95
a(S'think'
p96
S'you'
p97
tp98
a(S'of'
S'that'
p99
tp100
a(S'that'
p101
S'?'
tp102
a(S'a'
S'way'
tp103
a(S'I'
S"'ve"
p104
tp105
a(S'?'
S'?'
tp106
a(S'what'
S'the'
p107
tp108
a(S"''"
p109
S'?'
tp110
a(S'an'
p111
S'example'
p112
tp113
a(S'it'
S'on'
tp114
a(S'it'
S'that'
tp115
a(S'It'
S"'s"
p116
tp117
a(S'i'
S'think'
p118
tp119
a(S'you'
p120
S'do'
tp121
a(S'have'
p122
S'the'
p123
tp124
a(S"n't"
S'the'
p125
tp126
a(S'it'
p127
S'be'
tp128
a(S'able'
p129
S'to'
p130
tp131
a(S'version'
p132
S'of'
tp133
a(S'What'
S'kind'
tp134
a(S'it'
S'does'
tp135
a(S'44'
S'would'
tp136
a(S'you'
p137
S'did'
p138
tp139
a(S'a'
S'question'
p140
tp141
a(S'of'
p142
S'the'
p143
tp144
a(S'your'
p145
S'code'
p146
tp147
a(S'please'
p148
S'?'
tp149
a(S'this'
S'question'
tp150
a(S"'s"
p151
S'not'
p152
tp153
a(S'with'
p154
S'your'
p155
tp156
a(S'you'
p157
S'using'
p158
tp159
a(S'have'
S'no'
p160
tp161
a(S'44'
S'could'
tp162
a(S'this'
p163
S'one'
tp164
a(S'the'
S'talk'
tp165
a(S'What'
g42
tp166
a(S'question'
p167
S'?'
tp168
a(S'supposed'
p169
S'to'
p170
tp171
a(S'code'
p172
S'?'
tp173
a(S'such'
p174
S'a'
tp175
a(S'this'
p176
S'article'
tp177
a(S'the'
p178
S'problem'
p179
tp180
a(S'is'
S"n't"
p181
tp182
a(S'for'
p183
S'a'
tp184
a(S'has'
p185
S'been'
p186
tp187
a(S'to'
S'use'
p188
tp189
a(S"'m"
S'not'
p190
tp191
a(S'what'
p192
S'exactly'
p193
tp194
a(S'how'
p195
S'to'
p196
tp197
a(S'seem'
p198
S'to'
p199
tp200
a(S'you'
p201
S'just'
p202
tp203
a(S'from'
p204
S'a'
tp205
a(S'your'
p206
S'own'
p207
tp208
a(g179
S'with'
tp209
a(S'on'
p210
S'your'
p211
tp212
a(S'be'
S'the'
p213
tp214
a(S"n't"
S'want'
tp215
a(S'the'
p216
S'question'
p217
tp218
a(S'you'
S'help'
p219
tp220
a(S'be'
g129
tp221
a(S"'s"
p222
g178
tp223
a(S'about'
p224
S'the'
p225
tp226
a(S'work'
S'on'
p227
tp228
a(S'i'
S"'ve"
p229
tp230
a(S'you'
S'please'
p231
tp232
a(S'talk'
p233
S'page'
p234
tp235
a(S"n't"
S'be'
p236
tp237
a(g138
S"n't"
p238
tp239
a(S'how'
S'can'
p240
tp241
a(S'Can'
S'you'
p242
tp243
a(S'to'
p244
S'say'
p245
tp246
a(S'the'
p247
S'user'
p248
tp249
a(S'out'
p250
S'of'
p251
tp252
a(S'for'
p253
S'this'
p254
tp255
a(S'know'
S'the'
p256
tp257
a(S'i'
S'do'
tp258
a(S'and'
S'i'
tp259
a(S'file'
S'?'
tp260
a(S'here'
p261
S'?'
tp262
a(S'are'
p263
S'not'
p264
tp265
a(S'provide'
S'a'
tp266
a(S'talking'
p267
S'about'
p268
tp269
a(S"n't"
S'really'
p270
tp271
a(S'kind'
p272
S'of'
p273
tp274
a(S'use'
p275
S'the'
p276
tp277
a(S'the'
S'code'
tp278
a(S'do'
S'that'
tp279
a(S'a'
S'little'
p280
tp281
a(S'you'
p282
S'have'
p283
tp284
a(S'possible'
S'to'
p285
tp286
a(S'you'
S'make'
p287
tp288
a(S'44'
S'the'
p289
tp290
a(S'If'
p291
S'you'
tp292
a(S'into'
p293
S'the'
p294
tp295
a(S'have'
p296
S'you'
p297
tp298
a(S'is'
p299
S'that'
p300
tp301
a(S'or'
p302
S'a'
tp303
a(S'you'
S'post'
p304
tp305
a(S'that'
S'this'
p306
tp307
a(S'What'
S'exactly'
p308
tp309
a(S'to'
p310
S'make'
tp311
a(S'any'
p312
S'chance'
p313
tp314
a(S'give'
p315
S'a'
tp316
a(S'would'
p317
S'you'
p318
tp319
a(S'you'
S'like'
p320
tp321
a(S'Is'
S'the'
p322
tp323
a(S'What'
g222
tp324
a(S'to'
S'help'
p325
tp326
a(S'need'
p327
S'a'
tp328
a(S'for'
p329
S'you'
tp330
a(S'to'
p331
S'the'
p332
tp333
a(S'what'
p334
S"'s"
p335
tp336
a(S'thanks'
S'for'
p337
tp338
a(S'like'
p339
S'this'
tp340
a(S'looking'
p341
S'for'
tp342
a(S'than'
p343
S'the'
tp344
a(S'you'
S'be'
p345
tp346
a(S'you'
S'explain'
p347
tp348
a(S'not'
g247
tp349
a(S'on'
p350
S'my'
p351
tp352
a(S'see'
p353
S'the'
p354
tp355
a(S'That'
g151
tp356
a(S'with'
p357
S'a'
tp358
a(S'this'
p359
S'a'
tp360
a(S'where'
p361
S'you'
p362
tp363
a(S'me'
p364
S'?'
tp365
a(S'do'
S'with'
p366
tp367
a(S'seems'
p368
S'to'
tp369
a(S'This'
S'is'
p370
tp371
a(S'now'
p372
S'?'
tp373
a(S'using'
S'?'
tp374
a(S'with'
p375
S'you'
tp376
a(S'with'
p377
S'?'
tp378
a(S'could'
S'you'
p379
tp380
a(S'with'
p381
S'it'
tp382
a(S'list'
p383
S'of'
p384
tp385
a(S'to'
p386
g176
tp387
a(S'Is'
S'it'
p388
tp389
a(S"'m"
S'sorry'
p390
tp391
a(S'Could'
S'you'
p392
tp393
a(S'I'
g96
tp394
a(S'me'
p395
S'a'
tp396
a(S'the'
S'image'
p397
tp398
a(S'not'
p399
S'be'
tp400
a(S'what'
p401
S'are'
tp402
a(S'want'
p403
S'to'
p404
tp405
a(S'why'
S'did'
tp406
a(S'are'
S"n't"
p407
tp408
a(S'like'
p409
S'a'
tp410
a(S'Why'
p411
S'are'
p412
tp413
a(S'Would'
S'you'
p414
tp415
a(S'there'
p416
S'a'
tp417
a(S'about'
S'?'
tp418
a(S'the'
S'top'
p419
tp420
a(S"n't"
g353
tp421
a(S'know'
S'how'
tp422
a(S'one'
p423
S'?'
tp424
a(S'as'
p425
S'the'
p426
tp427
a(S'do'
S'it'
p428
tp429
a(S'of'
p430
S'a'
tp431
a(S'the'
p432
S'title'
p433
tp434
a(S'all'
p435
S'of'
p436
tp437
a(S'more'
S'than'
p438
tp439
a(S'it'
S'would'
tp440
a(S'How'
S'do'
tp441
a(S'on'
p442
S'a'
tp443
a(S'which'
p444
S'is'
p445
tp446
a(S'more'
p447
S'information'
p448
tp449
a(S'yet'
p450
S'?'
tp451
a(S'more'
p452
S'specific'
p453
tp454
a(S'not'
p455
S'a'
tp456
a(S'i'
S'just'
p457
tp458
a(S'please'
S'explain'
tp459
a(S'time'
p460
S'to'
p461
tp462
a(S'could'
p463
S'be'
tp464
a(S'on'
p465
S'?'
tp466
a(S'44'
S'you'
tp467
a(S'44'
S'but'
p468
tp469
a(S'a'
S'look'
p470
tp471
a(S'you'
S'use'
p472
tp473
a(S'work'
p474
S'?'
tp475
a(S'it'
S'was'
p476
tp477
a(S'What'
S'do'
tp478
a(S'can'
p479
S'be'
p480
tp481
a(S'is'
S'not'
p482
tp483
a(S'wo'
p484
S"n't"
tp485
a(S'you'
p486
S'are'
p487
tp488
a(S'was'
p489
S"n't"
p490
tp491
a(S'there'
p492
S'is'
p493
tp494
a(S'and'
p495
S'you'
tp496
a(S'it'
p497
S'a'
tp498
a(S'why'
p499
S'not'
p500
tp501
a(S'you'
S'need'
tp502
a(S'get'
p503
S'the'
tp504
a(S'something'
S'?'
tp505
a(S'I'
S'do'
p506
tp507
a(S'you'
S'for'
p508
tp509
a(S'for'
S'that'
tp510
a(S'a'
S'good'
p511
tp512
a(S'as'
p513
S'you'
tp514
a(S'like'
p515
S'that'
tp516
a(S'do'
p517
S'you'
tp518
a(g468
S'i'
tp519
a(S'and'
p520
S'it'
p521
tp522
a(S'44'
g192
tp523
a(S'know'
S'that'
tp524
a(S'for'
p525
S'?'
tp526
a(S'you'
p527
S'?'
tp528
a(S'do'
S'i'
tp529
a(S'like'
p530
S'you'
tp531
a(S'mean'
S'by'
p532
tp533
a(S'44'
S'i'
tp534
a(S'why'
p535
S'would'
p536
tp537
a(S'using'
p538
S'the'
p539
tp540
a(S'but'
S'it'
p541
tp542
a(S'change'
p543
S'the'
tp544
a(S'try'
p545
S'to'
p546
tp547
a(S'i'
S'did'
p548
tp549
a(S'you'
p550
g545
tp551
a(S'44'
p552
g444
tp553
a(S'a'
S'few'
p554
tp555
a(S'wrong'
p556
g78
tp557
a(S'or'
p558
S'are'
tp559
a(S'What'
S'is'
tp560
a(S'how'
p561
S'do'
tp562
a(S'by'
S'``'
tp563
a(S'i'
g489
tp564
a(S'ok'
p565
S'?'
tp566
a(S'is'
p567
S'it'
tp568
a(S'that'
p569
S'i'
tp570
a(S'44'
S'can'
tp571
a(S'Is'
S'that'
p572
tp573
a(S'homework'
p574
S'?'
tp575
a(S'need'
p576
S'to'
p577
tp578
a(S'way'
p579
S'to'
p580
tp581
a(S'Is'
S'this'
p582
tp583
a(S'and'
p584
S'the'
p585
tp586
a(S'the'
p587
S'one'
p588
tp589
a(S'is'
p590
S'the'
p591
tp592
a(S'as'
p593
S'it'
tp594
a(S'that'
p595
S'the'
p596
tp597
a(S'one'
p598
S'of'
tp599
a(S'but'
S'you'
tp600
a(S'do'
p601
S'this'
p602
tp603
a(S'is'
S'an'
p604
tp605
a(S'type'
p606
S'of'
p607
tp608
a(S'that'
S'it'
p609
tp610
a(S'but'
S'the'
p611
tp612
a(S'to'
S'ask'
p613
tp614
a(S'them'
p615
S'?'
tp616
a(S'do'
S'the'
p617
tp618
a(S'the'
p619
S'way'
p620
tp621
a(S'should'
p622
S"n't"
tp623
a(S'up'
p624
S'?'
tp625
a(S'why'
p626
S'?'
tp627
a(S'to'
S'my'
p628
tp629
a(g506
S"n't"
p630
tp631
a(S'a'
S'problem'
tp632
a(S'44'
g535
tp633
a(S'and'
S'then'
p634
tp635
a(S'related'
p636
S'to'
tp637
a(S'i'
S'can'
p638
tp639
a(S'Is'
p640
S"n't"
tp641
a(S'this'
p642
S'?'
tp643
a(S'to'
p644
S'add'
p645
tp646
a(S'I'
S'have'
p647
tp648
a(S'if'
p649
S'it'
p650
tp651
a(S"n't"
S'have'
tp652
a(S'you'
p653
g32
tp654
a(S'know'
p655
S'what'
p656
tp657
a(S"'s"
S'a'
tp658
a(S'in'
p659
S'a'
tp660
a(S'to'
p661
S'know'
p662
tp663
a(S'44'
S'as'
p664
tp665
a(S'is'
p666
S'this'
p667
tp668
a(S'the'
S'time'
tp669
a(S'make'
p670
g497
tp671
a(S'on'
p672
S'what'
p673
tp674
a(S'of'
p675
S'those'
p676
tp677
a(S'of'
p678
S'what'
p679
tp680
a(S'will'
p681
S'be'
tp682
a(S'not'
p683
S'?'
tp684
a(S'Why'
g317
tp685
a(g630
S'understand'
p686
tp687
a(S"n't"
p688
S'it'
tp689
a(S'the'
S'first'
p690
tp691
a(S'or'
p692
S'not'
p693
tp694
a(S'problem'
S'?'
tp695
a(S'any'
p696
S'other'
p697
tp698
a(S'page'
p699
S'?'
tp700
a(S'so'
p701
S'that'
p702
tp703
a(S'it'
p704
S'in'
p705
tp706
a(S'why'
p707
S'are'
tp708
a(S'you'
S'see'
tp709
a(g404
g601
tp710
a(S'44'
S'and'
p711
tp712
a(S'it'
p713
S'for'
tp714
a(g493
S'no'
p715
tp716
a(S'understand'
S'the'
p717
tp718
a(g345
g452
tp719
a(S'a'
S'lot'
p720
tp721
a(S'you'
S'give'
p722
tp723
a(S"n't"
S'work'
p724
tp725
a(S'they'
p726
S'are'
p727
tp728
a(S'the'
S'second'
p729
tp730
a(S'what'
g590
tp731
a(S'in'
p732
S'the'
p733
tp734
a(S'that'
p735
g120
tp736
a(S'as'
p737
S'i'
tp738
a(S'Did'
S'you'
tp739
a(S'am'
S'not'
p740
tp741
a(S'we'
p742
S'can'
p743
tp744
a(S'i'
S'am'
p745
tp746
a(S'it'
p747
S'to'
p748
tp749
a(S'what'
S'do'
tp750
a(S'in'
S'this'
tp751
a(S'think'
S'i'
tp752
a(S'post'
p753
S'the'
tp754
a(S'I'
S'am'
p755
tp756
a(S'you'
p757
S"'re"
p758
tp759
a(S'willing'
p760
S'to'
tp761
a(S'you'
p762
S'can'
p763
tp764
a(S'have'
S'any'
p765
tp766
a(S'it'
S'seems'
p767
tp768
a(S'a'
S'new'
p769
tp770
a(S'i'
S'see'
p771
tp772
a(S'of'
p773
S'my'
p774
tp775
a(S'in'
p776
S'your'
p777
tp778
a(S'44'
g299
tp779
a(S"n't"
g13
tp780
a(S'how'
p781
S'you'
p782
tp783
a(S'part'
p784
S'of'
tp785
a(S'at'
p786
S'least'
p787
tp788
a(S'why'
g666
tp789
a(S'to'
p790
S'see'
p791
tp792
a(S'you'
S'think'
p793
tp794
a(S'it'
p795
S'?'
tp796
a(S'number'
p797
S'of'
p798
tp799
a(S'Have'
S'you'
p800
tp801
a(S'I'
S'ca'
tp802
a(S'you'
p803
S'were'
p804
tp805
a(S'does'
p806
S'not'
p807
tp808
a(S'correct'
p809
S'?'
tp810
a(S'to'
p811
S'me'
p812
tp813
a(S'would'
p814
S'be'
p815
tp816
a(S'if'
p817
S'you'
p818
tp819
a(S'will'
p820
S'you'
tp821
a(S'i'
S'have'
p822
tp823
a(S'i'
S'know'
tp824
a(S'all'
p825
S'the'
p826
tp827
a(S'can'
p828
g550
tp829
a(g240
S'i'
tp830
a(S'or'
p831
S'do'
tp832
a(S'tell'
p833
S'me'
p834
tp835
a(g283
S'a'
tp836
a(S'to'
p837
S'work'
p838
tp839
a(S'on'
p840
g90
tp841
a(S'going'
p842
S'to'
tp843
a(S'you'
p844
S'say'
p845
tp846
a(S'that'
S'was'
p847
tp848
a(S'on'
p849
S'that'
p850
tp851
a(S'what'
p852
g757
tp853
a(S'you'
S'add'
tp854
a(S'you'
S'would'
tp855
a(S'Is'
g416
tp856
a(S'your'
p857
g167
tp858
a(S'a'
S'better'
p859
tp860
a(S'Why'
g73
tp861
a(S'ca'
p862
S"n't"
p863
tp864
a(g5
g17
tp865
a(S'on'
p866
S'wikipedia'
tp867
a(S'was'
p868
S'a'
tp869
a(S'44'
S'if'
tp870
a(S'44'
S'that'
tp871
a(S'interested'
p872
S'in'
tp873
a(S'to'
p874
S'get'
p875
tp876
a(S'as'
S'an'
p877
tp878
a(S'on'
p879
S'this'
p880
tp881
a(S'answer'
p882
S'?'
tp883
a(g242
S'clarify'
p884
tp885
a(S'if'
p886
S'i'
tp887
a(S'I'
S"'m"
tp888
a(S'an'
S'article'
p889
tp890
a(S'you'
S'tried'
p891
tp892
a(S'this'
p893
S'is'
p894
tp895
a(S'i'
S'would'
p896
tp897
a(S'there'
S'any'
p898
tp899
a(S'you'
S'looking'
tp900
a(S'for'
p901
S'the'
p902
tp903
a(S'you'
S'really'
p904
tp905
a(S'if'
p906
S'the'
p907
tp908
a(S'from'
p909
S'the'
tp910
a(S'take'
p911
S'a'
tp912
a(S'have'
S'an'
p913
tp914
a(S'with'
S'this'
tp915
a(S'have'
S'to'
p916
tp917
a(S'so'
p918
S'far'
p919
tp920
a(S'you'
S'tell'
tp921
a(S'have'
S"n't"
tp922
a(g87
S'a'
tp923
a(S'does'
p924
S"n't"
tp925
a(S'agree'
p926
S'with'
p927
tp928
a(S'you'
S'mind'
tp929
a(S'but'
p930
S'I'
tp931
a(S'up'
p932
S'with'
p933
tp934
a(S'I'
S'can'
p935
tp936
a(S'and'
S'what'
p937
tp938
a(S'do'
S'I'
tp939
a(S'like'
p940
S'to'
tp941
a(S'that'
S'they'
tp942
a(S'the'
S'answer'
tp943
a(S'something'
p944
S'like'
p945
tp946
a(S'to'
p947
S'a'
tp948
a(S'should'
S'be'
p949
tp950
a(S'that'
p951
S'a'
tp952
a(S'you'
S'ca'
tp953
a(S'44'
S'do'
tp954
a(S'you'
p955
S'could'
p956
tp957
a(S'you'
S'provide'
p958
tp959
a(S'in'
p960
S'my'
p961
tp962
a(S'instead'
p963
S'of'
tp964
a(S'at'
p965
S'the'
p966
tp967
a(S'there'
p968
S"'s"
p969
tp970
a(S'it'
S'should'
tp971
a(S'you'
S'to'
p972
tp973
a(S'think'
S'it'
tp974
a(S'over'
p975
S'the'
tp976
a(g937
S'does'
p977
tp978
a(S'as'
p979
S'well'
p980
tp981
a(S'i'
S"'m"
p982
tp983
a(S'to'
p984
S'?'
tp985
a(S'it'
S"'s"
tp986
a(S'to'
S'have'
p987
tp988
a(S'of'
p989
S'it'
p990
tp991
a(g863
g201
tp992
a(S'is'
S'there'
p993
tp994
a(S'too'
p995
S'?'
tp996
a(S'of'
p997
S'your'
p998
tp999
a(S'not'
S'sure'
p1000
tp1001
a(S'the'
S'error'
p1002
tp1003
a(S'you'
S'mean'
p1004
tp1005
a(S'the'
S'edit'
p1006
tp1007
a(S'think'
S'?'
tp1008
a(S'you'
p1009
g403
tp1010
a(S'i'
S"'ll"
p1011
tp1012
a(S'question'
S'is'
tp1013
a(S'to'
S'find'
p1014
tp1015
a(S'Does'
S'it'
p1016
tp1017
a(S"'d"
g940
tp1018
a(S'to'
S'your'
p1019
tp1020
a(S'the'
S'new'
p1021
tp1022
a(S'the'
S'page'
p1023
tp1024
a(S'How'
S'are'
tp1025
a(S'are'
p1026
g157
tp1027
a(S'there'
p1028
g263
tp1029
a(S'explain'
p1030
S'what'
p1031
tp1032
a(S'44'
S'so'
p1033
tp1034
a(S'Are'
g653
tp1035
a(g980
S'?'
tp1036
a(S'as'
S'a'
tp1037
a(S'right'
p1038
S'?'
tp1039
a(S'when'
p1040
S'you'
tp1041
a(S'referring'
p1042
S'to'
tp1043
a(S"'ve"
S'been'
p1044
tp1045
a(S'what'
S'I'
tp1046
a(S'would'
S"n't"
p1047
tp1048
a(S'you'
S'should'
p1049
tp1050
a(g907
S'list'
p1051
tp1052
a(g720
S'of'
p1053
tp1054
a(S'you'
p1055
S"'ve"
p1056
tp1057
a(S'does'
S'the'
p1058
tp1059
a(S'is'
p1060
S'a'
tp1061
a(S'as'
p1062
S'to'
p1063
tp1064
a(S'am'
S'i'
tp1065
a(S'might'
p1066
S'be'
p1067
tp1068
a(g508
S'your'
p1069
tp1070
a(S'at'
p1071
S'all'
p1072
tp1073
a(g118
S'the'
p1074
tp1075
a(S'looks'
S'like'
tp1076
a(S'by'
p1077
g619
tp1078
a(S'does'
p1079
S'it'
p1080
tp1081
a(S'article'
S'?'
tp1082
a(g436
S'this'
p1083
tp1084
a(S'it'
S'possible'
p1085
tp1086
a(S'or'
S'is'
tp1087
a(S'I'
S'would'
p1088
tp1089
a(S'you'
p1090
S'get'
p1091
tp1092
a(S'me'
p1093
S'to'
tp1094
a(S'to'
p1095
S'take'
p1096
tp1097
a(S'you'
p1098
S"'d"
p1099
tp1100
a(S'rather'
p1101
S'than'
p1102
tp1103
a(S'the'
p1104
S'same'
p1105
tp1106
a(S'the'
S'last'
p1107
tp1108
a(S'bit'
S'more'
p1109
tp1110
a(S'why'
g517
tp1111
a(S'be'
g872
tp1112
a(S'or'
p1113
S'something'
tp1114
a(g791
S'you'
p1115
tp1116
a(g470
S'at'
p1117
tp1118
a(S'I'
S"'d"
tp1119
a(S'Why'
S'do'
tp1120
a(S'saying'
p1121
S'that'
p1122
tp1123
a(S'it'
p1124
g1060
tp1125
a(S'for'
p1126
S'me'
p1127
tp1128
a(S'the'
p1129
S'``'
p1130
tp1131
a(S'Do'
S'you'
tp1132
a(S'you'
S'not'
p1133
tp1134
a(S'or'
p1135
S'the'
tp1136
a(S'help'
p1137
S'?'
tp1138
a(S'44'
g831
tp1139
a(S'add'
S'a'
tp1140
a(S'the'
S'other'
p1141
tp1142
a.